
MASTER.elf:     file format elf32-littleriscv
MASTER.elf
architecture: riscv:rv32, flags 0x00000112:
EXEC_P, HAS_SYMS, D_PAGED
start address 0x00000000

Program Header:
    LOAD off    0x00001000 vaddr 0x00000000 paddr 0x00000000 align 2**12
         filesz 0x000047e4 memsz 0x000047e4 flags r-x
    LOAD off    0x00006000 vaddr 0x20000000 paddr 0x000047e4 align 2**12
         filesz 0x00000088 memsz 0x000000d0 flags rw-
    LOAD off    0x00006800 vaddr 0x20004800 paddr 0x20004800 align 2**12
         filesz 0x00000000 memsz 0x00000800 flags rw-

Sections:
Idx Name           Size      VMA       LMA       File off  Algn  Flags
  0 .init          00000038  00000000  00000000  00001000  2**1  CONTENTS, ALLOC, LOAD, READONLY, CODE
  1 .vector        00000108  00000038  00000038  00001038  2**1  CONTENTS, ALLOC, LOAD, READONLY, CODE
  2 .text          000046a4  00000140  00000140  00001140  2**2  CONTENTS, ALLOC, LOAD, READONLY, CODE
  3 .fini          00000000  000047e4  000047e4  00006088  2**0  CONTENTS, ALLOC, LOAD, CODE
  4 .dalign        00000000  20000000  20000000  00006088  2**0  CONTENTS
  5 .dlalign       00000000  000047e4  000047e4  00006088  2**0  CONTENTS
  6 .data          00000088  20000000  000047e4  00006000  2**2  CONTENTS, ALLOC, LOAD, DATA
  7 .bss           00000048  20000088  0000486c  00006088  2**2  ALLOC
  8 .stack         00000800  20004800  20004800  00006800  2**0  ALLOC
  9 .debug_info    00013a3f  00000000  00000000  00006088  2**0  CONTENTS, READONLY, DEBUGGING
 10 .debug_abbrev  00003191  00000000  00000000  00019ac7  2**0  CONTENTS, READONLY, DEBUGGING
 11 .debug_aranges 00000c28  00000000  00000000  0001cc58  2**3  CONTENTS, READONLY, DEBUGGING
 12 .debug_ranges  00000ab0  00000000  00000000  0001d880  2**3  CONTENTS, READONLY, DEBUGGING
 13 .debug_line    0000b6b5  00000000  00000000  0001e330  2**0  CONTENTS, READONLY, DEBUGGING
 14 .debug_str     00003e80  00000000  00000000  000299e5  2**0  CONTENTS, READONLY, DEBUGGING
 15 .comment       00000033  00000000  00000000  0002d865  2**0  CONTENTS, READONLY
 16 .debug_frame   000035bc  00000000  00000000  0002d898  2**2  CONTENTS, READONLY, DEBUGGING
 17 .stab          000000b4  00000000  00000000  00030e54  2**2  CONTENTS, READONLY, DEBUGGING
 18 .stabstr       00000183  00000000  00000000  00030f08  2**0  CONTENTS, READONLY, DEBUGGING
SYMBOL TABLE:
00000000 l    d  .init	00000000 .init
00000038 l    d  .vector	00000000 .vector
00000140 l    d  .text	00000000 .text
000047e4 l    d  .fini	00000000 .fini
20000000 l    d  .dalign	00000000 .dalign
000047e4 l    d  .dlalign	00000000 .dlalign
20000000 l    d  .data	00000000 .data
20000088 l    d  .bss	00000000 .bss
20004800 l    d  .stack	00000000 .stack
00000000 l    d  .debug_info	00000000 .debug_info
00000000 l    d  .debug_abbrev	00000000 .debug_abbrev
00000000 l    d  .debug_aranges	00000000 .debug_aranges
00000000 l    d  .debug_ranges	00000000 .debug_ranges
00000000 l    d  .debug_line	00000000 .debug_line
00000000 l    d  .debug_str	00000000 .debug_str
00000000 l    d  .comment	00000000 .comment
00000000 l    d  .debug_frame	00000000 .debug_frame
00000000 l    d  .stab	00000000 .stab
00000000 l    d  .stabstr	00000000 .stabstr
00000000 l    df *ABS*	00000000 ./Libraries/wch_libraries/Startup/startup_ch32v10x.o
00000038 l       .vector	00000000 _vector_base
00000000 l    df *ABS*	00000000 isr.c
00000000 l    df *ABS*	00000000 main.c
20000091 l     O .bss	00000001 uart_num.6038
00000000 l    df *ABS*	00000000 ch32v10x_dma.c
00000000 l    df *ABS*	00000000 ch32v10x_exti.c
00000000 l    df *ABS*	00000000 ch32v10x_gpio.c
00000000 l    df *ABS*	00000000 ch32v10x_misc.c
00000ece l     F .text	00000032 NVIC_EnableIRQ
00000f00 l     F .text	00000032 NVIC_DisableIRQ
00000f32 l     F .text	0000002a NVIC_SetPriority
00000000 l    df *ABS*	00000000 ch32v10x_rcc.c
20000000 l     O .data	00000010 APBAHBPrescTable
20000070 l     O .data	00000004 ADCPrescTable
00000000 l    df *ABS*	00000000 ch32v10x_spi.c
00000000 l    df *ABS*	00000000 ch32v10x_tim.c
00000000 l    df *ABS*	00000000 ch32v10x_usart.c
00000000 l    df *ABS*	00000000 SEEKFREE_IPS114_SPI.c
00000000 l    df *ABS*	00000000 SEEKFREE_MT9V03X.c
00000000 l    df *ABS*	00000000 SEEKFREE_UART_7725.c
00000000 l    df *ABS*	00000000 zf_gpio.c
00000000 l    df *ABS*	00000000 zf_nvic.c
00000000 l    df *ABS*	00000000 zf_spi.c
000046e8 l     O .text	0000000e __func__.3348
00000000 l    df *ABS*	00000000 zf_systick.c
00000000 l    df *ABS*	00000000 zf_uart.c
00000000 l    df *ABS*	00000000 board.c
00000000 l    df *ABS*	00000000 clock_config.c
00002ccc l     F .text	00000140 SetSysClock
00000000 l    df *ABS*	00000000 assert.c
00000000 l    df *ABS*	00000000 fprintf.c
00000000 l    df *ABS*	00000000 nano-vfprintf.c
00002ee8 l     F .text	00000028 __sfputc_r
00000000 l    df *ABS*	00000000 nano-vfprintf_i.c
00000000 l    df *ABS*	00000000 wbuf.c
00000000 l    df *ABS*	00000000 wsetup.c
00000000 l    df *ABS*	00000000 abort.c
00000000 l    df *ABS*	00000000 fflush.c
00000000 l    df *ABS*	00000000 findfp.c
0000391a l     F .text	0000006a std
00000000 l    df *ABS*	00000000 fwalk.c
00000000 l    df *ABS*	00000000 makebuf.c
00000000 l    df *ABS*	00000000 memchr.c
00000000 l    df *ABS*	00000000 nano-mallocr.c
00000000 l    df *ABS*	00000000 nano-mallocr.c
00000000 l    df *ABS*	00000000 sbrkr.c
00000000 l    df *ABS*	00000000 signal.c
00000000 l    df *ABS*	00000000 signalr.c
00000000 l    df *ABS*	00000000 stdio.c
00000000 l    df *ABS*	00000000 writer.c
00000000 l    df *ABS*	00000000 closer.c
00000000 l    df *ABS*	00000000 fstatr.c
00000000 l    df *ABS*	00000000 isattyr.c
00000000 l    df *ABS*	00000000 lseekr.c
00000000 l    df *ABS*	00000000 mlock.c
00000000 l    df *ABS*	00000000 readr.c
00000000 l    df *ABS*	00000000 close.c
00000000 l    df *ABS*	00000000 fstat.c
00000000 l    df *ABS*	00000000 getpid.c
00000000 l    df *ABS*	00000000 isatty.c
00000000 l    df *ABS*	00000000 kill.c
00000000 l    df *ABS*	00000000 lseek.c
00000000 l    df *ABS*	00000000 read.c
00000000 l    df *ABS*	00000000 sbrk.c
200000b0 l     O .bss	00000004 heap_end.1518
00000000 l    df *ABS*	00000000 _exit.c
00000000 l    df *ABS*	00000000 SEEKFREE_FONT.c
00000000 l    df *ABS*	00000000 impure.c
20000010 l     O .data	00000060 impure_data
00000000 l    df *ABS*	00000000 common.c
00000000 l    df *ABS*	00000000 reent.c
00000232 g     F .text	00000016 EXTI2_IRQHandler
00003fbc g     F .text	00000028 _isatty_r
00001d6a g     F .text	0000007e ips114_set_region
00004058 g     F .text	0000000c _getpid
00003fe4 g     F .text	0000002c _lseek_r
2000008a g     O .bss	00000002 slave_encoder_left
000023f2 g     F .text	00000080 gpio_interrupt_init
00003e56 g     F .text	0000002a _kill_r
00001f30 g     F .text	00000176 ips114_showint16
20000870 g       .data	00000000 __global_pointer$
00000354 g     F .text	00000090 TIM1_CC_IRQHandler
00003f00 g     F .text	00000036 __sseek
000039d4 g     F .text	00000066 __sinit
000035a0 g     F .text	000000c0 __swbuf_r
0000052c g     F .text	00000008 HardFault_Handler
0000398e g     F .text	00000046 __sfmoreglue
00004012 g     F .text	00000002 __malloc_unlock
00000f5c g     F .text	000000c4 NVIC_Init
200000a4 g     O .bss	00000004 sys_clk
0000051c g     F .text	00000010 NMI_Handler
00000248 g     F .text	00000010 EXTI3_IRQHandler
20000074 g     O .data	00000004 camera_type
00001860 g     F .text	00000046 USART_GetFlagStatus
00003f92 g     F .text	0000002a _fstat_r
200000cc g     O .bss	00000004 errno
20000088 g       .bss	00000000 _sbss
00000800 g       *ABS*	00000000 __stack_size
200000b4 g     O .bss	0000000b temp_buff
20000088 g     O .bss	00000001 uart_flag
200000a1 g     O .bss	00000001 ov7725_uart_finish_flag
00003984 g     F .text	0000000a _cleanup_r
00000cf0 g     F .text	0000013c GPIO_PinRemapConfig
000006d4 g     F .text	00000040 EXTI0_IRQHandler
00000534 g     F .text	00000086 get_slave_data
0000183a g     F .text	00000026 USART_ReceiveData
2000008c g     O .bss	00000002 slave_encoder_right
00003dea g     F .text	00000062 _raise_r
0000404c g     F .text	0000000c _fstat
00002744 g     F .text	00000134 spi_init
00002e88 g     F .text	0000003a __assert_func
00000038 g       .init	00000000 _einit
0000252c g     F .text	00000028 sys_recover_irq
00001488 g     F .text	0000002e TIM_ClearITPendingBit
0000123a g     F .text	00000046 RCC_APB2PeriphClockCmd
00002116 g     F .text	00000036 mt9v03x_vsync
000040e8 g     O .text	000005f0 tft_ascii
00000288 g     F .text	00000010 ADC1_2_IRQHandler
00003e80 g     F .text	00000002 _getpid_r
00000a8e g     F .text	0000022a GPIO_Init
00002472 g     F .text	00000098 nvic_init
000016e8 g     F .text	00000060 USART_Cmd
00003dc2 g     F .text	00000028 _sbrk_r
00004014 g     F .text	0000002c _read_r
000019a8 g     F .text	0000004e USART_ClearITPendingBit
2000007c g     O .data	00000008 SPIN
00001280 g     F .text	00000046 RCC_APB1PeriphClockCmd
00004064 g     F .text	0000000c _isatty
20000084 g     O .data	00000004 _global_impure_ptr
000005ba g     F .text	000000cc data_analysis
000004d6 g     F .text	00000046 DMA1_Channel4_IRQHandler
2000008e g     O .bss	00000002 slave_position
0000376c g     F .text	0000000e abort
00004094 g     F .text	00000020 _sbrk
20000090 g     O .bss	00000001 show_flag
00000814 g     F .text	0000005c DMA_GetFlagStatus
00000686 g     F .text	0000004e USART3_IRQHandler
00000a6e g     F .text	00000020 EXTI_ClearITPendingBit
200000d0 g       .bss	00000000 _ebss
000018a6 g     F .text	00000102 USART_GetITStatus
00001b0a g     F .text	00000260 ips114_init
00001de8 g     F .text	00000066 ips114_clear
00001a9a g     F .text	00000070 ips114_writedata_16bit
0000293a g     F .text	00000094 systick_delay
0000217a g     F .text	00000070 ov7725_cof_uart_interrupt
000046f8 g     O .text	00000010 UARTN
00002ec2 g     F .text	00000026 fprintf
0000043c g     F .text	00000030 TIM4_IRQHandler
00000cb8 g     F .text	00000038 GPIO_WriteBit
2000009f g     O .bss	00000001 ov7725_uart_receive_num
00004784 g     O .text	00000020 __sf_fake_stderr
200000d0 g       .bss	00000000 end
00001418 g     F .text	00000070 TIM_GetITStatus
00001020 g     F .text	0000021a RCC_GetClocksFreq
00002f10 g     F .text	00000042 __sfputs_r
00002aba g     F .text	00000104 uart_init
00003c36 g     F .text	0000001a memchr
000014b6 g     F .text	00000232 USART_Init
00003c50 g     F .text	000000a4 _free_r
0000040c g     F .text	00000030 TIM3_IRQHandler
00002590 g     F .text	00000028 EnableGlobalIRQ
000029ce g     F .text	000000ec uart_gpio_init
000002fc g     F .text	00000058 TIM1_TRG_COM_IRQHandler
00002220 g     F .text	0000002e ov7725_uart_dma
00000000 g       .init	00000000 _start
0000407c g     F .text	0000000c _lseek
200000a0 g     O .bss	00000001 ov7725_uart_receive_flag
0000250a g     F .text	00000022 close_all_irq
00000278 g     F .text	00000010 EXTI15_10_IRQHandler
000046d8 g     O .text	00000010 GPION
00001748 g     F .text	000000c4 USART_ITConfig
000008a8 g     F .text	00000170 EXTI_Init
00003f6a g     F .text	00000028 _close_r
20000000 g       .dalign	00000000 _data_vma
000019f6 g     F .text	00000052 ips114_writeIndex
00003660 g     F .text	0000010c __swsetup_r
00000268 g     F .text	00000010 EXTI9_5_IRQHandler
00003a3a g     F .text	0000009c __sfp
00000e2c g     F .text	000000a2 GPIO_EXTILineConfig
00002c0e g     F .text	00000046 board_init
00003e82 g     F .text	00000030 __sread
00004010 g     F .text	00000002 __malloc_lock
000038b6 g     F .text	00000064 _fflush_r
00000a18 g     F .text	00000056 EXTI_GetITStatus
000047a4 g     O .text	00000020 __sf_fake_stdin
0000214c g     F .text	0000002e mt9v03x_dma
00000140 g     F .text	000000a8 memset
00000714 g     F .text	00000086 main
00003f36 g     F .text	00000006 __sclose
00003cf4 g     F .text	000000ce _malloc_r
00000258 g     F .text	00000010 EXTI4_IRQHandler
000013be g     F .text	0000005a SPI_Cmd
00002554 g     F .text	0000003c DisableGlobalIRQ
00002e0c g     F .text	0000007c SystemInit
00000000 g       .init	00000000 _sinit
00003f3c g     F .text	0000002e _write_r
20000097 g     O .bss	00000001 receive_num
200000c0 g     O .bss	0000000c irq_status
000031f0 g     F .text	0000010c _printf_common
20000078 g     O .data	00000004 _impure_ptr
000002cc g     F .text	00000030 TIM1_UP_IRQHandler
20000094 g     O .bss	00000003 receive
0000377a g     F .text	0000013c __sflush_r
000021ea g     F .text	00000036 ov7725_uart_vsync
000003e4 g     F .text	00000028 TIM2_IRQHandler
20005000 g       .stack	00000000 _eusrstack
20000098 g     O .bss	00000001 uart_receive_flag
000020a6 g     F .text	00000070 mt9v03x_uart_callback
20000099 g     O .bss	00000001 mt9v03x_finish_flag
00000298 g     F .text	00000034 TIM1_BRK_IRQHandler
00003b42 g     F .text	00000058 __swhatbuf_r
0000180c g     F .text	0000002e USART_SendData
000001e8 g     F .text	0000004a EXTI1_IRQHandler
00002c54 g     F .text	00000078 _write
20000088 g       .data	00000000 _edata
00001a48 g     F .text	00000052 ips114_writeData
000047e4 g       .dlalign	00000000 _data_lma
0000047c g     F .text	0000005a USART2_IRQHandler
00003eb2 g     F .text	0000004e __swrite
00002ec2 g     F .text	00000026 fiprintf
00002f52 g     F .text	0000029e _vfiprintf_r
00002878 g     F .text	000000c2 spi_mosi
00003ad6 g     F .text	0000006c _fwalk_reent
00004070 g     F .text	0000000c _kill
000047c4 g     O .text	00000020 __sf_fake_stdout
00000870 g     F .text	00000038 DMA_ClearFlag
00004088 g     F .text	0000000c _read
0000079a  w      .text	00000000 handle_reset
000040b4 g     F .text	00000002 _exit
0000046c g     F .text	00000010 USART1_IRQHandler
00003b9a g     F .text	0000009c __smakebuf_r
000032fc g     F .text	000002a4 _printf_i
200000ac g     O .bss	00000004 __malloc_sbrk_start
00002bbe g     F .text	00000050 uart_rx_irq
000012c6 g     F .text	000000f8 SPI_Init
000025b8 g     F .text	0000018c spi_gpio_init
0000224e g     F .text	000001a4 gpio_init
200000a8 g     O .bss	00000004 __malloc_free_list
00002f52 g     F .text	0000029e _vfprintf_r
2000009c g     O .bss	00000003 ov7725_uart_receive
00004040 g     F .text	0000000c _close
00003e4c g     F .text	0000000a raise
00001e4e g     F .text	000000e2 ips114_showchar



Disassembly of section .init:

00000000 <_sinit>:
_start():
E:\GITKraken\Dual-core_Communication_Demo\Dual-core_Communication_Demo\MASTER\obj/../Libraries/wch_libraries/Startup/startup_ch32v10x.S:13

	.section	.init,"ax",@progbits
	.global	_start
	.align	1
_start:
	j	handle_reset
   0:	79a0006f          	j	79a <handle_reset>
   4:	00000013          	nop
   8:	00000013          	nop
   c:	00000013          	nop
  10:	00000013          	nop
  14:	00000013          	nop
  18:	00000013          	nop
  1c:	00000013          	nop
  20:	00000013          	nop
  24:	00000013          	nop
  28:	00000013          	nop
  2c:	00000013          	nop
  30:	00000013          	nop
  34:	00100073          	ebreak

Disassembly of section .vector:

00000038 <_vector_base>:
_vector_base():
E:\GITKraken\Dual-core_Communication_Demo\Dual-core_Communication_Demo\MASTER\obj/../Libraries/wch_libraries/Startup/startup_ch32v10x.S:31
	.word 0x00100073
    .section    .vector,"ax",@progbits
    .align  1
_vector_base:
    .option norvc;
        j   _start
  38:	fc9ff06f          	j	0 <_sinit>
  3c:	0000                	unimp
  3e:	0000                	unimp
E:\GITKraken\Dual-core_Communication_Demo\Dual-core_Communication_Demo\MASTER\obj/../Libraries/wch_libraries/Startup/startup_ch32v10x.S:33
    .word   0
        j   NMI_Handler                 /* NMI Handler */
  40:	4dc0006f          	j	51c <NMI_Handler>
E:\GITKraken\Dual-core_Communication_Demo\Dual-core_Communication_Demo\MASTER\obj/../Libraries/wch_libraries/Startup/startup_ch32v10x.S:34
        j   HardFault_Handler           /* Hard Fault Handler */
  44:	4e80006f          	j	52c <HardFault_Handler>
	...
E:\GITKraken\Dual-core_Communication_Demo\Dual-core_Communication_Demo\MASTER\obj/../Libraries/wch_libraries/Startup/startup_ch32v10x.S:43
    .word   0
    .word   0
    .word   0
    .word   0
    .word   0
        j   SysTick_Handler            /* SysTick Handler */
  68:	f99ff06f          	j	0 <_sinit>
  6c:	0000                	unimp
  6e:	0000                	unimp
E:\GITKraken\Dual-core_Communication_Demo\Dual-core_Communication_Demo\MASTER\obj/../Libraries/wch_libraries/Startup/startup_ch32v10x.S:45
    .word   0
        j   SW_handler                 /* SW Handler */
  70:	f91ff06f          	j	0 <_sinit>
  74:	0000                	unimp
  76:	0000                	unimp
E:\GITKraken\Dual-core_Communication_Demo\Dual-core_Communication_Demo\MASTER\obj/../Libraries/wch_libraries/Startup/startup_ch32v10x.S:48
    .word   0
    /* External Interrupts */
        j   WWDG_IRQHandler            /* Window Watchdog */
  78:	f89ff06f          	j	0 <_sinit>
E:\GITKraken\Dual-core_Communication_Demo\Dual-core_Communication_Demo\MASTER\obj/../Libraries/wch_libraries/Startup/startup_ch32v10x.S:49
        j   PVD_IRQHandler             /* PVD through EXTI Line detect */
  7c:	f85ff06f          	j	0 <_sinit>
E:\GITKraken\Dual-core_Communication_Demo\Dual-core_Communication_Demo\MASTER\obj/../Libraries/wch_libraries/Startup/startup_ch32v10x.S:50
        j   TAMPER_IRQHandler          /* TAMPER */
  80:	f81ff06f          	j	0 <_sinit>
E:\GITKraken\Dual-core_Communication_Demo\Dual-core_Communication_Demo\MASTER\obj/../Libraries/wch_libraries/Startup/startup_ch32v10x.S:51
        j   RTC_IRQHandler             /* RTC */
  84:	f7dff06f          	j	0 <_sinit>
E:\GITKraken\Dual-core_Communication_Demo\Dual-core_Communication_Demo\MASTER\obj/../Libraries/wch_libraries/Startup/startup_ch32v10x.S:52
        j   FLASH_IRQHandler           /* Flash */
  88:	f79ff06f          	j	0 <_sinit>
E:\GITKraken\Dual-core_Communication_Demo\Dual-core_Communication_Demo\MASTER\obj/../Libraries/wch_libraries/Startup/startup_ch32v10x.S:53
        j   RCC_IRQHandler             /* RCC */
  8c:	f75ff06f          	j	0 <_sinit>
E:\GITKraken\Dual-core_Communication_Demo\Dual-core_Communication_Demo\MASTER\obj/../Libraries/wch_libraries/Startup/startup_ch32v10x.S:54
        j   EXTI0_IRQHandler           /* EXTI Line 0 */
  90:	6440006f          	j	6d4 <EXTI0_IRQHandler>
E:\GITKraken\Dual-core_Communication_Demo\Dual-core_Communication_Demo\MASTER\obj/../Libraries/wch_libraries/Startup/startup_ch32v10x.S:55
        j   EXTI1_IRQHandler           /* EXTI Line 1 */
  94:	1540006f          	j	1e8 <EXTI1_IRQHandler>
E:\GITKraken\Dual-core_Communication_Demo\Dual-core_Communication_Demo\MASTER\obj/../Libraries/wch_libraries/Startup/startup_ch32v10x.S:56
        j   EXTI2_IRQHandler           /* EXTI Line 2 */
  98:	19a0006f          	j	232 <EXTI2_IRQHandler>
E:\GITKraken\Dual-core_Communication_Demo\Dual-core_Communication_Demo\MASTER\obj/../Libraries/wch_libraries/Startup/startup_ch32v10x.S:57
        j   EXTI3_IRQHandler           /* EXTI Line 3 */
  9c:	1ac0006f          	j	248 <EXTI3_IRQHandler>
E:\GITKraken\Dual-core_Communication_Demo\Dual-core_Communication_Demo\MASTER\obj/../Libraries/wch_libraries/Startup/startup_ch32v10x.S:58
        j   EXTI4_IRQHandler           /* EXTI Line 4 */
  a0:	1b80006f          	j	258 <EXTI4_IRQHandler>
E:\GITKraken\Dual-core_Communication_Demo\Dual-core_Communication_Demo\MASTER\obj/../Libraries/wch_libraries/Startup/startup_ch32v10x.S:59
        j   DMA1_Channel1_IRQHandler   /* DMA1 Channel 1 */
  a4:	f5dff06f          	j	0 <_sinit>
E:\GITKraken\Dual-core_Communication_Demo\Dual-core_Communication_Demo\MASTER\obj/../Libraries/wch_libraries/Startup/startup_ch32v10x.S:60
        j   DMA1_Channel2_IRQHandler   /* DMA1 Channel 2 */
  a8:	f59ff06f          	j	0 <_sinit>
E:\GITKraken\Dual-core_Communication_Demo\Dual-core_Communication_Demo\MASTER\obj/../Libraries/wch_libraries/Startup/startup_ch32v10x.S:61
        j   DMA1_Channel3_IRQHandler   /* DMA1 Channel 3 */
  ac:	f55ff06f          	j	0 <_sinit>
E:\GITKraken\Dual-core_Communication_Demo\Dual-core_Communication_Demo\MASTER\obj/../Libraries/wch_libraries/Startup/startup_ch32v10x.S:62
        j   DMA1_Channel4_IRQHandler   /* DMA1 Channel 4 */
  b0:	4260006f          	j	4d6 <DMA1_Channel4_IRQHandler>
E:\GITKraken\Dual-core_Communication_Demo\Dual-core_Communication_Demo\MASTER\obj/../Libraries/wch_libraries/Startup/startup_ch32v10x.S:63
        j   DMA1_Channel5_IRQHandler   /* DMA1 Channel 5 */
  b4:	f4dff06f          	j	0 <_sinit>
E:\GITKraken\Dual-core_Communication_Demo\Dual-core_Communication_Demo\MASTER\obj/../Libraries/wch_libraries/Startup/startup_ch32v10x.S:64
        j   DMA1_Channel6_IRQHandler   /* DMA1 Channel 6 */
  b8:	f49ff06f          	j	0 <_sinit>
E:\GITKraken\Dual-core_Communication_Demo\Dual-core_Communication_Demo\MASTER\obj/../Libraries/wch_libraries/Startup/startup_ch32v10x.S:65
        j   DMA1_Channel7_IRQHandler   /* DMA1 Channel 7 */
  bc:	f45ff06f          	j	0 <_sinit>
E:\GITKraken\Dual-core_Communication_Demo\Dual-core_Communication_Demo\MASTER\obj/../Libraries/wch_libraries/Startup/startup_ch32v10x.S:66
        j   ADC1_2_IRQHandler          /* ADC1_2 */
  c0:	1c80006f          	j	288 <ADC1_2_IRQHandler>
	...
E:\GITKraken\Dual-core_Communication_Demo\Dual-core_Communication_Demo\MASTER\obj/../Libraries/wch_libraries/Startup/startup_ch32v10x.S:71
        .word   0
        .word   0
        .word   0
        .word   0
        j   EXTI9_5_IRQHandler         /* EXTI Line 9..5 */
  d4:	1940006f          	j	268 <EXTI9_5_IRQHandler>
E:\GITKraken\Dual-core_Communication_Demo\Dual-core_Communication_Demo\MASTER\obj/../Libraries/wch_libraries/Startup/startup_ch32v10x.S:72
        j   TIM1_BRK_IRQHandler        /* TIM1 Break */
  d8:	1c00006f          	j	298 <TIM1_BRK_IRQHandler>
E:\GITKraken\Dual-core_Communication_Demo\Dual-core_Communication_Demo\MASTER\obj/../Libraries/wch_libraries/Startup/startup_ch32v10x.S:73
        j   TIM1_UP_IRQHandler         /* TIM1 Update */
  dc:	1f00006f          	j	2cc <TIM1_UP_IRQHandler>
E:\GITKraken\Dual-core_Communication_Demo\Dual-core_Communication_Demo\MASTER\obj/../Libraries/wch_libraries/Startup/startup_ch32v10x.S:74
        j   TIM1_TRG_COM_IRQHandler    /* TIM1 Trigger and Commutation */
  e0:	21c0006f          	j	2fc <TIM1_TRG_COM_IRQHandler>
E:\GITKraken\Dual-core_Communication_Demo\Dual-core_Communication_Demo\MASTER\obj/../Libraries/wch_libraries/Startup/startup_ch32v10x.S:75
        j   TIM1_CC_IRQHandler         /* TIM1 Capture Compare */
  e4:	2700006f          	j	354 <TIM1_CC_IRQHandler>
E:\GITKraken\Dual-core_Communication_Demo\Dual-core_Communication_Demo\MASTER\obj/../Libraries/wch_libraries/Startup/startup_ch32v10x.S:76
        j   TIM2_IRQHandler            /* TIM2 */
  e8:	2fc0006f          	j	3e4 <TIM2_IRQHandler>
E:\GITKraken\Dual-core_Communication_Demo\Dual-core_Communication_Demo\MASTER\obj/../Libraries/wch_libraries/Startup/startup_ch32v10x.S:77
        j   TIM3_IRQHandler            /* TIM3 */
  ec:	3200006f          	j	40c <TIM3_IRQHandler>
E:\GITKraken\Dual-core_Communication_Demo\Dual-core_Communication_Demo\MASTER\obj/../Libraries/wch_libraries/Startup/startup_ch32v10x.S:78
        j   TIM4_IRQHandler            /* TIM4 */
  f0:	34c0006f          	j	43c <TIM4_IRQHandler>
E:\GITKraken\Dual-core_Communication_Demo\Dual-core_Communication_Demo\MASTER\obj/../Libraries/wch_libraries/Startup/startup_ch32v10x.S:79
        j   I2C1_EV_IRQHandler         /* I2C1 Event */
  f4:	f0dff06f          	j	0 <_sinit>
E:\GITKraken\Dual-core_Communication_Demo\Dual-core_Communication_Demo\MASTER\obj/../Libraries/wch_libraries/Startup/startup_ch32v10x.S:80
        j   I2C1_ER_IRQHandler         /* I2C1 Error */
  f8:	f09ff06f          	j	0 <_sinit>
E:\GITKraken\Dual-core_Communication_Demo\Dual-core_Communication_Demo\MASTER\obj/../Libraries/wch_libraries/Startup/startup_ch32v10x.S:81
        j   I2C2_EV_IRQHandler         /* I2C2 Event */
  fc:	f05ff06f          	j	0 <_sinit>
E:\GITKraken\Dual-core_Communication_Demo\Dual-core_Communication_Demo\MASTER\obj/../Libraries/wch_libraries/Startup/startup_ch32v10x.S:82
        j   I2C2_ER_IRQHandler         /* I2C2 Error */
 100:	f01ff06f          	j	0 <_sinit>
E:\GITKraken\Dual-core_Communication_Demo\Dual-core_Communication_Demo\MASTER\obj/../Libraries/wch_libraries/Startup/startup_ch32v10x.S:83
        j   SPI1_IRQHandler            /* SPI1 */
 104:	efdff06f          	j	0 <_sinit>
E:\GITKraken\Dual-core_Communication_Demo\Dual-core_Communication_Demo\MASTER\obj/../Libraries/wch_libraries/Startup/startup_ch32v10x.S:84
        j   SPI2_IRQHandler            /* SPI2 */
 108:	ef9ff06f          	j	0 <_sinit>
E:\GITKraken\Dual-core_Communication_Demo\Dual-core_Communication_Demo\MASTER\obj/../Libraries/wch_libraries/Startup/startup_ch32v10x.S:85
        j   USART1_IRQHandler          /* USART1 */
 10c:	3600006f          	j	46c <USART1_IRQHandler>
E:\GITKraken\Dual-core_Communication_Demo\Dual-core_Communication_Demo\MASTER\obj/../Libraries/wch_libraries/Startup/startup_ch32v10x.S:86
        j   USART2_IRQHandler          /* USART2 */
 110:	36c0006f          	j	47c <USART2_IRQHandler>
E:\GITKraken\Dual-core_Communication_Demo\Dual-core_Communication_Demo\MASTER\obj/../Libraries/wch_libraries/Startup/startup_ch32v10x.S:87
        j   USART3_IRQHandler          /* USART3 */
 114:	5720006f          	j	686 <USART3_IRQHandler>
E:\GITKraken\Dual-core_Communication_Demo\Dual-core_Communication_Demo\MASTER\obj/../Libraries/wch_libraries/Startup/startup_ch32v10x.S:88
        j   EXTI15_10_IRQHandler       /* EXTI Line 15..10 */
 118:	1600006f          	j	278 <EXTI15_10_IRQHandler>
E:\GITKraken\Dual-core_Communication_Demo\Dual-core_Communication_Demo\MASTER\obj/../Libraries/wch_libraries/Startup/startup_ch32v10x.S:89
        j   RTCAlarm_IRQHandler        /* RTC Alarm through EXTI Line */
 11c:	ee5ff06f          	j	0 <_sinit>
E:\GITKraken\Dual-core_Communication_Demo\Dual-core_Communication_Demo\MASTER\obj/../Libraries/wch_libraries/Startup/startup_ch32v10x.S:90
        j   USBWakeUp_IRQHandler       /* USB Wakeup from suspend */
 120:	ee1ff06f          	j	0 <_sinit>
E:\GITKraken\Dual-core_Communication_Demo\Dual-core_Communication_Demo\MASTER\obj/../Libraries/wch_libraries/Startup/startup_ch32v10x.S:91
        j   USBHD_IRQHandler           /* USBHD */
 124:	eddff06f          	j	0 <_sinit>
	...

Disassembly of section .text:

00000140 <memset>:
memset():
     140:	433d                	li	t1,15
     142:	872a                	mv	a4,a0
     144:	02c37363          	bgeu	t1,a2,16a <memset+0x2a>
     148:	00f77793          	andi	a5,a4,15
     14c:	efbd                	bnez	a5,1ca <memset+0x8a>
     14e:	e5ad                	bnez	a1,1b8 <memset+0x78>
     150:	ff067693          	andi	a3,a2,-16
     154:	8a3d                	andi	a2,a2,15
     156:	96ba                	add	a3,a3,a4
     158:	c30c                	sw	a1,0(a4)
     15a:	c34c                	sw	a1,4(a4)
     15c:	c70c                	sw	a1,8(a4)
     15e:	c74c                	sw	a1,12(a4)
     160:	0741                	addi	a4,a4,16
     162:	fed76be3          	bltu	a4,a3,158 <memset+0x18>
     166:	e211                	bnez	a2,16a <memset+0x2a>
     168:	8082                	ret
     16a:	40c306b3          	sub	a3,t1,a2
     16e:	068a                	slli	a3,a3,0x2
     170:	00000297          	auipc	t0,0x0
     174:	9696                	add	a3,a3,t0
     176:	00a68067          	jr	10(a3)
     17a:	00b70723          	sb	a1,14(a4)
     17e:	00b706a3          	sb	a1,13(a4)
     182:	00b70623          	sb	a1,12(a4)
     186:	00b705a3          	sb	a1,11(a4)
     18a:	00b70523          	sb	a1,10(a4)
     18e:	00b704a3          	sb	a1,9(a4)
     192:	00b70423          	sb	a1,8(a4)
     196:	00b703a3          	sb	a1,7(a4)
     19a:	00b70323          	sb	a1,6(a4)
     19e:	00b702a3          	sb	a1,5(a4)
     1a2:	00b70223          	sb	a1,4(a4)
     1a6:	00b701a3          	sb	a1,3(a4)
     1aa:	00b70123          	sb	a1,2(a4)
     1ae:	00b700a3          	sb	a1,1(a4)
     1b2:	00b70023          	sb	a1,0(a4)
     1b6:	8082                	ret
     1b8:	0ff5f593          	andi	a1,a1,255
     1bc:	00859693          	slli	a3,a1,0x8
     1c0:	8dd5                	or	a1,a1,a3
     1c2:	01059693          	slli	a3,a1,0x10
     1c6:	8dd5                	or	a1,a1,a3
     1c8:	b761                	j	150 <memset+0x10>
     1ca:	00279693          	slli	a3,a5,0x2
     1ce:	00000297          	auipc	t0,0x0
     1d2:	9696                	add	a3,a3,t0
     1d4:	8286                	mv	t0,ra
     1d6:	fa8680e7          	jalr	-88(a3)
     1da:	8096                	mv	ra,t0
     1dc:	17c1                	addi	a5,a5,-16
     1de:	8f1d                	sub	a4,a4,a5
     1e0:	963e                	add	a2,a2,a5
     1e2:	f8c374e3          	bgeu	t1,a2,16a <memset+0x2a>
     1e6:	b7a5                	j	14e <memset+0xe>

000001e8 <EXTI1_IRQHandler>:
EXTI1_IRQHandler():
E:\GITKraken\Dual-core_Communication_Demo\Dual-core_Communication_Demo\MASTER\obj/../USER/isr.c:69
//
//
//}

void EXTI1_IRQHandler(void)
{
     1e8:	1141                	addi	sp,sp,-16
     1ea:	c622                	sw	s0,12(sp)
     1ec:	0800                	addi	s0,sp,16
E:\GITKraken\Dual-core_Communication_Demo\Dual-core_Communication_Demo\MASTER\obj/../USER/isr.c:70
    if(SET == EXTI_GetITStatus(EXTI_Line1))
     1ee:	4509                	li	a0,2
     1f0:	029000ef          	jal	ra,a18 <EXTI_GetITStatus>
     1f4:	872a                	mv	a4,a0
     1f6:	4785                	li	a5,1
     1f8:	02f71863          	bne	a4,a5,228 <EXTI1_IRQHandler+0x40>
E:\GITKraken\Dual-core_Communication_Demo\Dual-core_Communication_Demo\MASTER\obj/../USER/isr.c:72
    {
        if(camera_type == CAMERA_BIN_UART)
     1fc:	200007b7          	lui	a5,0x20000
     200:	0747a703          	lw	a4,116(a5) # 20000074 <camera_type>
     204:	4789                	li	a5,2
     206:	00f71563          	bne	a4,a5,210 <EXTI1_IRQHandler+0x28>
E:\GITKraken\Dual-core_Communication_Demo\Dual-core_Communication_Demo\MASTER\obj/../USER/isr.c:73
            ov7725_uart_vsync();
     20a:	7e1010ef          	jal	ra,21ea <ov7725_uart_vsync>
     20e:	a811                	j	222 <EXTI1_IRQHandler+0x3a>
E:\GITKraken\Dual-core_Communication_Demo\Dual-core_Communication_Demo\MASTER\obj/../USER/isr.c:74
        else if(camera_type == CAMERA_GRAYSCALE)
     210:	200007b7          	lui	a5,0x20000
     214:	0747a703          	lw	a4,116(a5) # 20000074 <camera_type>
     218:	4785                	li	a5,1
     21a:	00f71463          	bne	a4,a5,222 <EXTI1_IRQHandler+0x3a>
E:\GITKraken\Dual-core_Communication_Demo\Dual-core_Communication_Demo\MASTER\obj/../USER/isr.c:75
            mt9v03x_vsync();
     21e:	6f9010ef          	jal	ra,2116 <mt9v03x_vsync>
E:\GITKraken\Dual-core_Communication_Demo\Dual-core_Communication_Demo\MASTER\obj/../USER/isr.c:76
        EXTI_ClearITPendingBit(EXTI_Line1);
     222:	4509                	li	a0,2
     224:	04b000ef          	jal	ra,a6e <EXTI_ClearITPendingBit>
E:\GITKraken\Dual-core_Communication_Demo\Dual-core_Communication_Demo\MASTER\obj/../USER/isr.c:79
    }

}
     228:	0001                	nop
     22a:	4432                	lw	s0,12(sp)
     22c:	0141                	addi	sp,sp,16
     22e:	30200073          	mret

00000232 <EXTI2_IRQHandler>:
EXTI2_IRQHandler():
E:\GITKraken\Dual-core_Communication_Demo\Dual-core_Communication_Demo\MASTER\obj/../USER/isr.c:82

void EXTI2_IRQHandler(void)
{
     232:	1141                	addi	sp,sp,-16
     234:	c622                	sw	s0,12(sp)
     236:	0800                	addi	s0,sp,16
E:\GITKraken\Dual-core_Communication_Demo\Dual-core_Communication_Demo\MASTER\obj/../USER/isr.c:83
    EXTI_ClearITPendingBit(EXTI_Line2);
     238:	4511                	li	a0,4
     23a:	035000ef          	jal	ra,a6e <EXTI_ClearITPendingBit>
E:\GITKraken\Dual-core_Communication_Demo\Dual-core_Communication_Demo\MASTER\obj/../USER/isr.c:84
}
     23e:	0001                	nop
     240:	4432                	lw	s0,12(sp)
     242:	0141                	addi	sp,sp,16
     244:	30200073          	mret

00000248 <EXTI3_IRQHandler>:
EXTI3_IRQHandler():
E:\GITKraken\Dual-core_Communication_Demo\Dual-core_Communication_Demo\MASTER\obj/../USER/isr.c:87

void EXTI3_IRQHandler(void)
{
     248:	1141                	addi	sp,sp,-16
     24a:	c622                	sw	s0,12(sp)
     24c:	0800                	addi	s0,sp,16
E:\GITKraken\Dual-core_Communication_Demo\Dual-core_Communication_Demo\MASTER\obj/../USER/isr.c:90


}
     24e:	0001                	nop
     250:	4432                	lw	s0,12(sp)
     252:	0141                	addi	sp,sp,16
     254:	30200073          	mret

00000258 <EXTI4_IRQHandler>:
EXTI4_IRQHandler():
E:\GITKraken\Dual-core_Communication_Demo\Dual-core_Communication_Demo\MASTER\obj/../USER/isr.c:93

void EXTI4_IRQHandler(void)
{
     258:	1141                	addi	sp,sp,-16
     25a:	c622                	sw	s0,12(sp)
     25c:	0800                	addi	s0,sp,16
E:\GITKraken\Dual-core_Communication_Demo\Dual-core_Communication_Demo\MASTER\obj/../USER/isr.c:96


}
     25e:	0001                	nop
     260:	4432                	lw	s0,12(sp)
     262:	0141                	addi	sp,sp,16
     264:	30200073          	mret

00000268 <EXTI9_5_IRQHandler>:
EXTI9_5_IRQHandler():
E:\GITKraken\Dual-core_Communication_Demo\Dual-core_Communication_Demo\MASTER\obj/../USER/isr.c:99

void EXTI9_5_IRQHandler(void)
{
     268:	1141                	addi	sp,sp,-16
     26a:	c622                	sw	s0,12(sp)
     26c:	0800                	addi	s0,sp,16
E:\GITKraken\Dual-core_Communication_Demo\Dual-core_Communication_Demo\MASTER\obj/../USER/isr.c:102


}
     26e:	0001                	nop
     270:	4432                	lw	s0,12(sp)
     272:	0141                	addi	sp,sp,16
     274:	30200073          	mret

00000278 <EXTI15_10_IRQHandler>:
EXTI15_10_IRQHandler():
E:\GITKraken\Dual-core_Communication_Demo\Dual-core_Communication_Demo\MASTER\obj/../USER/isr.c:105

void EXTI15_10_IRQHandler(void)
{
     278:	1141                	addi	sp,sp,-16
     27a:	c622                	sw	s0,12(sp)
     27c:	0800                	addi	s0,sp,16
E:\GITKraken\Dual-core_Communication_Demo\Dual-core_Communication_Demo\MASTER\obj/../USER/isr.c:107

}
     27e:	0001                	nop
     280:	4432                	lw	s0,12(sp)
     282:	0141                	addi	sp,sp,16
     284:	30200073          	mret

00000288 <ADC1_2_IRQHandler>:
ADC1_2_IRQHandler():
E:\GITKraken\Dual-core_Communication_Demo\Dual-core_Communication_Demo\MASTER\obj/../USER/isr.c:110

void ADC1_2_IRQHandler(void)
{
     288:	1141                	addi	sp,sp,-16
     28a:	c622                	sw	s0,12(sp)
     28c:	0800                	addi	s0,sp,16
E:\GITKraken\Dual-core_Communication_Demo\Dual-core_Communication_Demo\MASTER\obj/../USER/isr.c:113


}
     28e:	0001                	nop
     290:	4432                	lw	s0,12(sp)
     292:	0141                	addi	sp,sp,16
     294:	30200073          	mret

00000298 <TIM1_BRK_IRQHandler>:
TIM1_BRK_IRQHandler():
E:\GITKraken\Dual-core_Communication_Demo\Dual-core_Communication_Demo\MASTER\obj/../USER/isr.c:116

void TIM1_BRK_IRQHandler(void)
{
     298:	1141                	addi	sp,sp,-16
     29a:	c622                	sw	s0,12(sp)
     29c:	0800                	addi	s0,sp,16
E:\GITKraken\Dual-core_Communication_Demo\Dual-core_Communication_Demo\MASTER\obj/../USER/isr.c:117
    if(TIM_GetITStatus(TIM1, TIM_IT_Break) != RESET)
     29e:	08000593          	li	a1,128
     2a2:	400137b7          	lui	a5,0x40013
     2a6:	c0078513          	addi	a0,a5,-1024 # 40012c00 <_eusrstack+0x2000dc00>
     2aa:	16e010ef          	jal	ra,1418 <TIM_GetITStatus>
     2ae:	87aa                	mv	a5,a0
     2b0:	cb89                	beqz	a5,2c2 <TIM1_BRK_IRQHandler+0x2a>
E:\GITKraken\Dual-core_Communication_Demo\Dual-core_Communication_Demo\MASTER\obj/../USER/isr.c:119
    {
        TIM_ClearITPendingBit(TIM1, TIM_IT_Break);
     2b2:	08000593          	li	a1,128
     2b6:	400137b7          	lui	a5,0x40013
     2ba:	c0078513          	addi	a0,a5,-1024 # 40012c00 <_eusrstack+0x2000dc00>
     2be:	1ca010ef          	jal	ra,1488 <TIM_ClearITPendingBit>
E:\GITKraken\Dual-core_Communication_Demo\Dual-core_Communication_Demo\MASTER\obj/../USER/isr.c:122

    }
}
     2c2:	0001                	nop
     2c4:	4432                	lw	s0,12(sp)
     2c6:	0141                	addi	sp,sp,16
     2c8:	30200073          	mret

000002cc <TIM1_UP_IRQHandler>:
TIM1_UP_IRQHandler():
E:\GITKraken\Dual-core_Communication_Demo\Dual-core_Communication_Demo\MASTER\obj/../USER/isr.c:125

void TIM1_UP_IRQHandler(void)
{
     2cc:	1141                	addi	sp,sp,-16
     2ce:	c622                	sw	s0,12(sp)
     2d0:	0800                	addi	s0,sp,16
E:\GITKraken\Dual-core_Communication_Demo\Dual-core_Communication_Demo\MASTER\obj/../USER/isr.c:126
    if(TIM_GetITStatus(TIM1, TIM_IT_Update) != RESET)
     2d2:	4585                	li	a1,1
     2d4:	400137b7          	lui	a5,0x40013
     2d8:	c0078513          	addi	a0,a5,-1024 # 40012c00 <_eusrstack+0x2000dc00>
     2dc:	13c010ef          	jal	ra,1418 <TIM_GetITStatus>
     2e0:	87aa                	mv	a5,a0
     2e2:	cb81                	beqz	a5,2f2 <TIM1_UP_IRQHandler+0x26>
E:\GITKraken\Dual-core_Communication_Demo\Dual-core_Communication_Demo\MASTER\obj/../USER/isr.c:128
    {
        TIM_ClearITPendingBit(TIM1, TIM_IT_Update);
     2e4:	4585                	li	a1,1
     2e6:	400137b7          	lui	a5,0x40013
     2ea:	c0078513          	addi	a0,a5,-1024 # 40012c00 <_eusrstack+0x2000dc00>
     2ee:	19a010ef          	jal	ra,1488 <TIM_ClearITPendingBit>
E:\GITKraken\Dual-core_Communication_Demo\Dual-core_Communication_Demo\MASTER\obj/../USER/isr.c:131

    }
}
     2f2:	0001                	nop
     2f4:	4432                	lw	s0,12(sp)
     2f6:	0141                	addi	sp,sp,16
     2f8:	30200073          	mret

000002fc <TIM1_TRG_COM_IRQHandler>:
TIM1_TRG_COM_IRQHandler():
E:\GITKraken\Dual-core_Communication_Demo\Dual-core_Communication_Demo\MASTER\obj/../USER/isr.c:134

void TIM1_TRG_COM_IRQHandler(void)
{
     2fc:	1141                	addi	sp,sp,-16
     2fe:	c622                	sw	s0,12(sp)
     300:	0800                	addi	s0,sp,16
E:\GITKraken\Dual-core_Communication_Demo\Dual-core_Communication_Demo\MASTER\obj/../USER/isr.c:135
    if(TIM_GetITStatus(TIM1, TIM_IT_Trigger) != RESET)
     302:	04000593          	li	a1,64
     306:	400137b7          	lui	a5,0x40013
     30a:	c0078513          	addi	a0,a5,-1024 # 40012c00 <_eusrstack+0x2000dc00>
     30e:	10a010ef          	jal	ra,1418 <TIM_GetITStatus>
     312:	87aa                	mv	a5,a0
     314:	cb89                	beqz	a5,326 <TIM1_TRG_COM_IRQHandler+0x2a>
E:\GITKraken\Dual-core_Communication_Demo\Dual-core_Communication_Demo\MASTER\obj/../USER/isr.c:137
    {
        TIM_ClearITPendingBit(TIM1, TIM_IT_Trigger);
     316:	04000593          	li	a1,64
     31a:	400137b7          	lui	a5,0x40013
     31e:	c0078513          	addi	a0,a5,-1024 # 40012c00 <_eusrstack+0x2000dc00>
     322:	166010ef          	jal	ra,1488 <TIM_ClearITPendingBit>
E:\GITKraken\Dual-core_Communication_Demo\Dual-core_Communication_Demo\MASTER\obj/../USER/isr.c:140

    }
    if(TIM_GetITStatus(TIM1, TIM_IT_COM) != RESET)
     326:	02000593          	li	a1,32
     32a:	400137b7          	lui	a5,0x40013
     32e:	c0078513          	addi	a0,a5,-1024 # 40012c00 <_eusrstack+0x2000dc00>
     332:	0e6010ef          	jal	ra,1418 <TIM_GetITStatus>
     336:	87aa                	mv	a5,a0
     338:	cb89                	beqz	a5,34a <TIM1_TRG_COM_IRQHandler+0x4e>
E:\GITKraken\Dual-core_Communication_Demo\Dual-core_Communication_Demo\MASTER\obj/../USER/isr.c:142
    {
        TIM_ClearITPendingBit(TIM1, TIM_IT_COM);
     33a:	02000593          	li	a1,32
     33e:	400137b7          	lui	a5,0x40013
     342:	c0078513          	addi	a0,a5,-1024 # 40012c00 <_eusrstack+0x2000dc00>
     346:	142010ef          	jal	ra,1488 <TIM_ClearITPendingBit>
E:\GITKraken\Dual-core_Communication_Demo\Dual-core_Communication_Demo\MASTER\obj/../USER/isr.c:145

    }
}
     34a:	0001                	nop
     34c:	4432                	lw	s0,12(sp)
     34e:	0141                	addi	sp,sp,16
     350:	30200073          	mret

00000354 <TIM1_CC_IRQHandler>:
TIM1_CC_IRQHandler():
E:\GITKraken\Dual-core_Communication_Demo\Dual-core_Communication_Demo\MASTER\obj/../USER/isr.c:148

void TIM1_CC_IRQHandler(void)
{
     354:	1141                	addi	sp,sp,-16
     356:	c622                	sw	s0,12(sp)
     358:	0800                	addi	s0,sp,16
E:\GITKraken\Dual-core_Communication_Demo\Dual-core_Communication_Demo\MASTER\obj/../USER/isr.c:149
    if(TIM_GetITStatus(TIM1, TIM_IT_CC1) != RESET)
     35a:	4589                	li	a1,2
     35c:	400137b7          	lui	a5,0x40013
     360:	c0078513          	addi	a0,a5,-1024 # 40012c00 <_eusrstack+0x2000dc00>
     364:	0b4010ef          	jal	ra,1418 <TIM_GetITStatus>
     368:	87aa                	mv	a5,a0
     36a:	cb81                	beqz	a5,37a <TIM1_CC_IRQHandler+0x26>
E:\GITKraken\Dual-core_Communication_Demo\Dual-core_Communication_Demo\MASTER\obj/../USER/isr.c:151
    {
        TIM_ClearITPendingBit(TIM1, TIM_IT_CC1);
     36c:	4589                	li	a1,2
     36e:	400137b7          	lui	a5,0x40013
     372:	c0078513          	addi	a0,a5,-1024 # 40012c00 <_eusrstack+0x2000dc00>
     376:	112010ef          	jal	ra,1488 <TIM_ClearITPendingBit>
E:\GITKraken\Dual-core_Communication_Demo\Dual-core_Communication_Demo\MASTER\obj/../USER/isr.c:154

    }
    if(TIM_GetITStatus(TIM1, TIM_IT_CC2) != RESET)
     37a:	4591                	li	a1,4
     37c:	400137b7          	lui	a5,0x40013
     380:	c0078513          	addi	a0,a5,-1024 # 40012c00 <_eusrstack+0x2000dc00>
     384:	094010ef          	jal	ra,1418 <TIM_GetITStatus>
     388:	87aa                	mv	a5,a0
     38a:	cb81                	beqz	a5,39a <TIM1_CC_IRQHandler+0x46>
E:\GITKraken\Dual-core_Communication_Demo\Dual-core_Communication_Demo\MASTER\obj/../USER/isr.c:156
    {
        TIM_ClearITPendingBit(TIM1, TIM_IT_CC2);
     38c:	4591                	li	a1,4
     38e:	400137b7          	lui	a5,0x40013
     392:	c0078513          	addi	a0,a5,-1024 # 40012c00 <_eusrstack+0x2000dc00>
     396:	0f2010ef          	jal	ra,1488 <TIM_ClearITPendingBit>
E:\GITKraken\Dual-core_Communication_Demo\Dual-core_Communication_Demo\MASTER\obj/../USER/isr.c:159

    }
    if(TIM_GetITStatus(TIM1, TIM_IT_CC3) != RESET)
     39a:	45a1                	li	a1,8
     39c:	400137b7          	lui	a5,0x40013
     3a0:	c0078513          	addi	a0,a5,-1024 # 40012c00 <_eusrstack+0x2000dc00>
     3a4:	074010ef          	jal	ra,1418 <TIM_GetITStatus>
     3a8:	87aa                	mv	a5,a0
     3aa:	cb81                	beqz	a5,3ba <TIM1_CC_IRQHandler+0x66>
E:\GITKraken\Dual-core_Communication_Demo\Dual-core_Communication_Demo\MASTER\obj/../USER/isr.c:161
    {
        TIM_ClearITPendingBit(TIM1, TIM_IT_CC3);
     3ac:	45a1                	li	a1,8
     3ae:	400137b7          	lui	a5,0x40013
     3b2:	c0078513          	addi	a0,a5,-1024 # 40012c00 <_eusrstack+0x2000dc00>
     3b6:	0d2010ef          	jal	ra,1488 <TIM_ClearITPendingBit>
E:\GITKraken\Dual-core_Communication_Demo\Dual-core_Communication_Demo\MASTER\obj/../USER/isr.c:164

    }
    if(TIM_GetITStatus(TIM1, TIM_IT_CC4) != RESET)
     3ba:	45c1                	li	a1,16
     3bc:	400137b7          	lui	a5,0x40013
     3c0:	c0078513          	addi	a0,a5,-1024 # 40012c00 <_eusrstack+0x2000dc00>
     3c4:	054010ef          	jal	ra,1418 <TIM_GetITStatus>
     3c8:	87aa                	mv	a5,a0
     3ca:	cb81                	beqz	a5,3da <TIM1_CC_IRQHandler+0x86>
E:\GITKraken\Dual-core_Communication_Demo\Dual-core_Communication_Demo\MASTER\obj/../USER/isr.c:166
    {
        TIM_ClearITPendingBit(TIM1, TIM_IT_CC4);
     3cc:	45c1                	li	a1,16
     3ce:	400137b7          	lui	a5,0x40013
     3d2:	c0078513          	addi	a0,a5,-1024 # 40012c00 <_eusrstack+0x2000dc00>
     3d6:	0b2010ef          	jal	ra,1488 <TIM_ClearITPendingBit>
E:\GITKraken\Dual-core_Communication_Demo\Dual-core_Communication_Demo\MASTER\obj/../USER/isr.c:169

    }
}
     3da:	0001                	nop
     3dc:	4432                	lw	s0,12(sp)
     3de:	0141                	addi	sp,sp,16
     3e0:	30200073          	mret

000003e4 <TIM2_IRQHandler>:
TIM2_IRQHandler():
E:\GITKraken\Dual-core_Communication_Demo\Dual-core_Communication_Demo\MASTER\obj/../USER/isr.c:172

void TIM2_IRQHandler(void)
{
     3e4:	1141                	addi	sp,sp,-16
     3e6:	c622                	sw	s0,12(sp)
     3e8:	0800                	addi	s0,sp,16
E:\GITKraken\Dual-core_Communication_Demo\Dual-core_Communication_Demo\MASTER\obj/../USER/isr.c:174

    if(TIM_GetITStatus(TIM2, TIM_IT_Update) != RESET)
     3ea:	4585                	li	a1,1
     3ec:	40000537          	lui	a0,0x40000
     3f0:	028010ef          	jal	ra,1418 <TIM_GetITStatus>
     3f4:	87aa                	mv	a5,a0
     3f6:	c791                	beqz	a5,402 <TIM2_IRQHandler+0x1e>
E:\GITKraken\Dual-core_Communication_Demo\Dual-core_Communication_Demo\MASTER\obj/../USER/isr.c:176
    {
        TIM_ClearITPendingBit(TIM2, TIM_IT_Update );
     3f8:	4585                	li	a1,1
     3fa:	40000537          	lui	a0,0x40000
     3fe:	08a010ef          	jal	ra,1488 <TIM_ClearITPendingBit>
E:\GITKraken\Dual-core_Communication_Demo\Dual-core_Communication_Demo\MASTER\obj/../USER/isr.c:182
        //ccd_collect();//CCD数据采集
        //gpio_toggle(B5);
        //GPIO_PIN_RESET(B5);
        //GPIO_PIN_SET(B5);
    }
}
     402:	0001                	nop
     404:	4432                	lw	s0,12(sp)
     406:	0141                	addi	sp,sp,16
     408:	30200073          	mret

0000040c <TIM3_IRQHandler>:
TIM3_IRQHandler():
E:\GITKraken\Dual-core_Communication_Demo\Dual-core_Communication_Demo\MASTER\obj/../USER/isr.c:185

void TIM3_IRQHandler(void)
{
     40c:	1141                	addi	sp,sp,-16
     40e:	c622                	sw	s0,12(sp)
     410:	0800                	addi	s0,sp,16
E:\GITKraken\Dual-core_Communication_Demo\Dual-core_Communication_Demo\MASTER\obj/../USER/isr.c:186
    if(TIM_GetITStatus(TIM3, TIM_IT_Update) != RESET)
     412:	4585                	li	a1,1
     414:	400007b7          	lui	a5,0x40000
     418:	40078513          	addi	a0,a5,1024 # 40000400 <_eusrstack+0x1fffb400>
     41c:	7fd000ef          	jal	ra,1418 <TIM_GetITStatus>
     420:	87aa                	mv	a5,a0
     422:	cb81                	beqz	a5,432 <TIM3_IRQHandler+0x26>
E:\GITKraken\Dual-core_Communication_Demo\Dual-core_Communication_Demo\MASTER\obj/../USER/isr.c:188
    {
        TIM_ClearITPendingBit(TIM3, TIM_IT_Update );
     424:	4585                	li	a1,1
     426:	400007b7          	lui	a5,0x40000
     42a:	40078513          	addi	a0,a5,1024 # 40000400 <_eusrstack+0x1fffb400>
     42e:	05a010ef          	jal	ra,1488 <TIM_ClearITPendingBit>
E:\GITKraken\Dual-core_Communication_Demo\Dual-core_Communication_Demo\MASTER\obj/../USER/isr.c:191

    }
}
     432:	0001                	nop
     434:	4432                	lw	s0,12(sp)
     436:	0141                	addi	sp,sp,16
     438:	30200073          	mret

0000043c <TIM4_IRQHandler>:
TIM4_IRQHandler():
E:\GITKraken\Dual-core_Communication_Demo\Dual-core_Communication_Demo\MASTER\obj/../USER/isr.c:194

void TIM4_IRQHandler(void)
{
     43c:	1141                	addi	sp,sp,-16
     43e:	c622                	sw	s0,12(sp)
     440:	0800                	addi	s0,sp,16
E:\GITKraken\Dual-core_Communication_Demo\Dual-core_Communication_Demo\MASTER\obj/../USER/isr.c:195
    if(TIM_GetITStatus(TIM4, TIM_IT_Update) != RESET)
     442:	4585                	li	a1,1
     444:	400017b7          	lui	a5,0x40001
     448:	80078513          	addi	a0,a5,-2048 # 40000800 <_eusrstack+0x1fffb800>
     44c:	7cd000ef          	jal	ra,1418 <TIM_GetITStatus>
     450:	87aa                	mv	a5,a0
     452:	cb81                	beqz	a5,462 <TIM4_IRQHandler+0x26>
E:\GITKraken\Dual-core_Communication_Demo\Dual-core_Communication_Demo\MASTER\obj/../USER/isr.c:197
    {
        TIM_ClearITPendingBit(TIM4, TIM_IT_Update );
     454:	4585                	li	a1,1
     456:	400017b7          	lui	a5,0x40001
     45a:	80078513          	addi	a0,a5,-2048 # 40000800 <_eusrstack+0x1fffb800>
     45e:	02a010ef          	jal	ra,1488 <TIM_ClearITPendingBit>
E:\GITKraken\Dual-core_Communication_Demo\Dual-core_Communication_Demo\MASTER\obj/../USER/isr.c:200

    }
}
     462:	0001                	nop
     464:	4432                	lw	s0,12(sp)
     466:	0141                	addi	sp,sp,16
     468:	30200073          	mret

0000046c <USART1_IRQHandler>:
USART1_IRQHandler():
E:\GITKraken\Dual-core_Communication_Demo\Dual-core_Communication_Demo\MASTER\obj/../USER/isr.c:203

void USART1_IRQHandler(void)
{
     46c:	1141                	addi	sp,sp,-16
     46e:	c622                	sw	s0,12(sp)
     470:	0800                	addi	s0,sp,16
E:\GITKraken\Dual-core_Communication_Demo\Dual-core_Communication_Demo\MASTER\obj/../USER/isr.c:205

}
     472:	0001                	nop
     474:	4432                	lw	s0,12(sp)
     476:	0141                	addi	sp,sp,16
     478:	30200073          	mret

0000047c <USART2_IRQHandler>:
USART2_IRQHandler():
E:\GITKraken\Dual-core_Communication_Demo\Dual-core_Communication_Demo\MASTER\obj/../USER/isr.c:208

void USART2_IRQHandler(void)
{
     47c:	1141                	addi	sp,sp,-16
     47e:	c622                	sw	s0,12(sp)
     480:	0800                	addi	s0,sp,16
E:\GITKraken\Dual-core_Communication_Demo\Dual-core_Communication_Demo\MASTER\obj/../USER/isr.c:209
    if(USART_GetITStatus(USART2, USART_IT_RXNE) != RESET)
     482:	52500593          	li	a1,1317
     486:	400047b7          	lui	a5,0x40004
     48a:	40078513          	addi	a0,a5,1024 # 40004400 <_eusrstack+0x1ffff400>
     48e:	418010ef          	jal	ra,18a6 <USART_GetITStatus>
     492:	87aa                	mv	a5,a0
     494:	cf85                	beqz	a5,4cc <USART2_IRQHandler+0x50>
E:\GITKraken\Dual-core_Communication_Demo\Dual-core_Communication_Demo\MASTER\obj/../USER/isr.c:211
    {
        USART_ClearITPendingBit(USART2, USART_IT_RXNE);
     496:	52500593          	li	a1,1317
     49a:	400047b7          	lui	a5,0x40004
     49e:	40078513          	addi	a0,a5,1024 # 40004400 <_eusrstack+0x1ffff400>
     4a2:	506010ef          	jal	ra,19a8 <USART_ClearITPendingBit>
E:\GITKraken\Dual-core_Communication_Demo\Dual-core_Communication_Demo\MASTER\obj/../USER/isr.c:212
        if(camera_type == CAMERA_BIN_UART)
     4a6:	200007b7          	lui	a5,0x20000
     4aa:	0747a703          	lw	a4,116(a5) # 20000074 <camera_type>
     4ae:	4789                	li	a5,2
     4b0:	00f71563          	bne	a4,a5,4ba <USART2_IRQHandler+0x3e>
E:\GITKraken\Dual-core_Communication_Demo\Dual-core_Communication_Demo\MASTER\obj/../USER/isr.c:213
            ov7725_cof_uart_interrupt();
     4b4:	4c7010ef          	jal	ra,217a <ov7725_cof_uart_interrupt>
E:\GITKraken\Dual-core_Communication_Demo\Dual-core_Communication_Demo\MASTER\obj/../USER/isr.c:217
        else if(camera_type == CAMERA_GRAYSCALE)
            mt9v03x_uart_callback();
    }
}
     4b8:	a811                	j	4cc <USART2_IRQHandler+0x50>
E:\GITKraken\Dual-core_Communication_Demo\Dual-core_Communication_Demo\MASTER\obj/../USER/isr.c:214
        else if(camera_type == CAMERA_GRAYSCALE)
     4ba:	200007b7          	lui	a5,0x20000
     4be:	0747a703          	lw	a4,116(a5) # 20000074 <camera_type>
     4c2:	4785                	li	a5,1
     4c4:	00f71463          	bne	a4,a5,4cc <USART2_IRQHandler+0x50>
E:\GITKraken\Dual-core_Communication_Demo\Dual-core_Communication_Demo\MASTER\obj/../USER/isr.c:215
            mt9v03x_uart_callback();
     4c8:	3df010ef          	jal	ra,20a6 <mt9v03x_uart_callback>
E:\GITKraken\Dual-core_Communication_Demo\Dual-core_Communication_Demo\MASTER\obj/../USER/isr.c:217
}
     4cc:	0001                	nop
     4ce:	4432                	lw	s0,12(sp)
     4d0:	0141                	addi	sp,sp,16
     4d2:	30200073          	mret

000004d6 <DMA1_Channel4_IRQHandler>:
DMA1_Channel4_IRQHandler():
E:\GITKraken\Dual-core_Communication_Demo\Dual-core_Communication_Demo\MASTER\obj/../USER/isr.c:225
//{
//
//}

void DMA1_Channel4_IRQHandler(void)
{
     4d6:	1141                	addi	sp,sp,-16
     4d8:	c622                	sw	s0,12(sp)
     4da:	0800                	addi	s0,sp,16
E:\GITKraken\Dual-core_Communication_Demo\Dual-core_Communication_Demo\MASTER\obj/../USER/isr.c:226
    if(SET == DMA_GetFlagStatus(DMA1_FLAG_TC4))
     4dc:	6509                	lui	a0,0x2
     4de:	2e1d                	jal	814 <DMA_GetFlagStatus>
     4e0:	872a                	mv	a4,a0
     4e2:	4785                	li	a5,1
     4e4:	02f71763          	bne	a4,a5,512 <DMA1_Channel4_IRQHandler+0x3c>
E:\GITKraken\Dual-core_Communication_Demo\Dual-core_Communication_Demo\MASTER\obj/../USER/isr.c:228
    {
        DMA_ClearFlag(DMA1_FLAG_TC4);
     4e8:	6509                	lui	a0,0x2
     4ea:	2659                	jal	870 <DMA_ClearFlag>
E:\GITKraken\Dual-core_Communication_Demo\Dual-core_Communication_Demo\MASTER\obj/../USER/isr.c:229
        if(camera_type == CAMERA_BIN_UART)
     4ec:	200007b7          	lui	a5,0x20000
     4f0:	0747a703          	lw	a4,116(a5) # 20000074 <camera_type>
     4f4:	4789                	li	a5,2
     4f6:	00f71563          	bne	a4,a5,500 <DMA1_Channel4_IRQHandler+0x2a>
E:\GITKraken\Dual-core_Communication_Demo\Dual-core_Communication_Demo\MASTER\obj/../USER/isr.c:230
            ov7725_uart_dma();
     4fa:	527010ef          	jal	ra,2220 <ov7725_uart_dma>
E:\GITKraken\Dual-core_Communication_Demo\Dual-core_Communication_Demo\MASTER\obj/../USER/isr.c:234
        else if(camera_type == CAMERA_GRAYSCALE)
            mt9v03x_dma();
    }
}
     4fe:	a811                	j	512 <DMA1_Channel4_IRQHandler+0x3c>
E:\GITKraken\Dual-core_Communication_Demo\Dual-core_Communication_Demo\MASTER\obj/../USER/isr.c:231
        else if(camera_type == CAMERA_GRAYSCALE)
     500:	200007b7          	lui	a5,0x20000
     504:	0747a703          	lw	a4,116(a5) # 20000074 <camera_type>
     508:	4785                	li	a5,1
     50a:	00f71463          	bne	a4,a5,512 <DMA1_Channel4_IRQHandler+0x3c>
E:\GITKraken\Dual-core_Communication_Demo\Dual-core_Communication_Demo\MASTER\obj/../USER/isr.c:232
            mt9v03x_dma();
     50e:	43f010ef          	jal	ra,214c <mt9v03x_dma>
E:\GITKraken\Dual-core_Communication_Demo\Dual-core_Communication_Demo\MASTER\obj/../USER/isr.c:234
}
     512:	0001                	nop
     514:	4432                	lw	s0,12(sp)
     516:	0141                	addi	sp,sp,16
     518:	30200073          	mret

0000051c <NMI_Handler>:
NMI_Handler():
E:\GITKraken\Dual-core_Communication_Demo\Dual-core_Communication_Demo\MASTER\obj/../USER/isr.c:243
* Description    : This function handles NMI exception.
* Input          : None
* Return         : None
*******************************************************************************/
void NMI_Handler(void)
{
     51c:	1141                	addi	sp,sp,-16
     51e:	c622                	sw	s0,12(sp)
     520:	0800                	addi	s0,sp,16
E:\GITKraken\Dual-core_Communication_Demo\Dual-core_Communication_Demo\MASTER\obj/../USER/isr.c:245

}
     522:	0001                	nop
     524:	4432                	lw	s0,12(sp)
     526:	0141                	addi	sp,sp,16
     528:	30200073          	mret

0000052c <HardFault_Handler>:
HardFault_Handler():
E:\GITKraken\Dual-core_Communication_Demo\Dual-core_Communication_Demo\MASTER\obj/../USER/isr.c:254
* Description    : This function handles Hard Fault exception.
* Input          : None
* Return         : None
*******************************************************************************/
void HardFault_Handler(void)
{
     52c:	1141                	addi	sp,sp,-16
     52e:	c622                	sw	s0,12(sp)
     530:	0800                	addi	s0,sp,16
E:\GITKraken\Dual-core_Communication_Demo\Dual-core_Communication_Demo\MASTER\obj/../USER/isr.c:256 (discriminator 1)

  while (1)
     532:	a001                	j	532 <HardFault_Handler+0x6>

00000534 <get_slave_data>:
get_slave_data():
E:\GITKraken\Dual-core_Communication_Demo\Dual-core_Communication_Demo\MASTER\obj/../USER/main.c:48
//  @return     void
//  @since      v1.0
//  Sample usage:
//-------------------------------------------------------------------------------------------------------------------
void get_slave_data(uint8 data)
{
     534:	1101                	addi	sp,sp,-32
     536:	ce22                	sw	s0,28(sp)
     538:	1000                	addi	s0,sp,32
     53a:	87aa                	mv	a5,a0
     53c:	fef407a3          	sb	a5,-17(s0)
E:\GITKraken\Dual-core_Communication_Demo\Dual-core_Communication_Demo\MASTER\obj/../USER/main.c:50
    static uint8 uart_num = 0;
    temp_buff[uart_num++] = data;
     540:	8211c783          	lbu	a5,-2015(gp) # 20000091 <uart_num.6038>
     544:	00178713          	addi	a4,a5,1
     548:	0ff77693          	andi	a3,a4,255
     54c:	82d180a3          	sb	a3,-2015(gp) # 20000091 <uart_num.6038>
     550:	873e                	mv	a4,a5
     552:	84418793          	addi	a5,gp,-1980 # 200000b4 <temp_buff>
     556:	97ba                	add	a5,a5,a4
     558:	fef44703          	lbu	a4,-17(s0)
     55c:	00e78023          	sb	a4,0(a5)
E:\GITKraken\Dual-core_Communication_Demo\Dual-core_Communication_Demo\MASTER\obj/../USER/main.c:52

    if(1 == uart_num)
     560:	8211c703          	lbu	a4,-2015(gp) # 20000091 <uart_num.6038>
     564:	4785                	li	a5,1
     566:	00f71d63          	bne	a4,a5,580 <get_slave_data+0x4c>
E:\GITKraken\Dual-core_Communication_Demo\Dual-core_Communication_Demo\MASTER\obj/../USER/main.c:55
    {
        //接收到的第一个字符不为0xD8，帧头错误
        if(0xD8 != temp_buff[0])
     56a:	8441c703          	lbu	a4,-1980(gp) # 200000b4 <temp_buff>
     56e:	0d800793          	li	a5,216
     572:	00f70763          	beq	a4,a5,580 <get_slave_data+0x4c>
E:\GITKraken\Dual-core_Communication_Demo\Dual-core_Communication_Demo\MASTER\obj/../USER/main.c:57
        {
            uart_num = 0;
     576:	820180a3          	sb	zero,-2015(gp) # 20000091 <uart_num.6038>
E:\GITKraken\Dual-core_Communication_Demo\Dual-core_Communication_Demo\MASTER\obj/../USER/main.c:58
            uart_flag = E_FRAME_HEADER_ERROR;
     57a:	4709                	li	a4,2
     57c:	80e18c23          	sb	a4,-2024(gp) # 20000088 <_edata>
E:\GITKraken\Dual-core_Communication_Demo\Dual-core_Communication_Demo\MASTER\obj/../USER/main.c:62
        }
    }

    if(LINE_LEN == uart_num)
     580:	8211c703          	lbu	a4,-2015(gp) # 20000091 <uart_num.6038>
     584:	47ad                	li	a5,11
     586:	02f71663          	bne	a4,a5,5b2 <get_slave_data+0x7e>
E:\GITKraken\Dual-core_Communication_Demo\Dual-core_Communication_Demo\MASTER\obj/../USER/main.c:64
    {
        uart_flag = E_OK;
     58a:	4705                	li	a4,1
     58c:	80e18c23          	sb	a4,-2024(gp) # 20000088 <_edata>
E:\GITKraken\Dual-core_Communication_Demo\Dual-core_Communication_Demo\MASTER\obj/../USER/main.c:66
        //接收到最后一个字节为0xEE
        if(0xEE == temp_buff[LINE_LEN - 1])
     590:	84418793          	addi	a5,gp,-1980 # 200000b4 <temp_buff>
     594:	00a7c703          	lbu	a4,10(a5)
     598:	0ee00793          	li	a5,238
     59c:	00f71663          	bne	a4,a5,5a8 <get_slave_data+0x74>
E:\GITKraken\Dual-core_Communication_Demo\Dual-core_Communication_Demo\MASTER\obj/../USER/main.c:68
        {
            uart_flag = E_OK;
     5a0:	4705                	li	a4,1
     5a2:	80e18c23          	sb	a4,-2024(gp) # 20000088 <_edata>
     5a6:	a021                	j	5ae <get_slave_data+0x7a>
E:\GITKraken\Dual-core_Communication_Demo\Dual-core_Communication_Demo\MASTER\obj/../USER/main.c:72
        }
        else    //接收到最后一个字节不是0xEE，帧尾错误
        {
            uart_flag = E_FRAME_RTAIL_ERROR;
     5a8:	470d                	li	a4,3
     5aa:	80e18c23          	sb	a4,-2024(gp) # 20000088 <_edata>
E:\GITKraken\Dual-core_Communication_Demo\Dual-core_Communication_Demo\MASTER\obj/../USER/main.c:74
        }
        uart_num = 0;
     5ae:	820180a3          	sb	zero,-2015(gp) # 20000091 <uart_num.6038>
E:\GITKraken\Dual-core_Communication_Demo\Dual-core_Communication_Demo\MASTER\obj/../USER/main.c:76
    }
}
     5b2:	0001                	nop
     5b4:	4472                	lw	s0,28(sp)
     5b6:	6105                	addi	sp,sp,32
     5b8:	8082                	ret

000005ba <data_analysis>:
data_analysis():
E:\GITKraken\Dual-core_Communication_Demo\Dual-core_Communication_Demo\MASTER\obj/../USER/main.c:86
//  @return     void
//  @since      v1.0
//  Sample usage:
//-------------------------------------------------------------------------------------------------------------------
void data_analysis(uint8 *line)
{
     5ba:	1101                	addi	sp,sp,-32
     5bc:	ce22                	sw	s0,28(sp)
     5be:	1000                	addi	s0,sp,32
     5c0:	fea42623          	sw	a0,-20(s0)
E:\GITKraken\Dual-core_Communication_Demo\Dual-core_Communication_Demo\MASTER\obj/../USER/main.c:87
    if(line[1] == 0xB0)    slave_encoder_left  = ((int16)line[2] << 8) | line[3];
     5c4:	fec42783          	lw	a5,-20(s0)
     5c8:	0785                	addi	a5,a5,1
     5ca:	0007c703          	lbu	a4,0(a5)
     5ce:	0b000793          	li	a5,176
     5d2:	02f71863          	bne	a4,a5,602 <data_analysis+0x48>
E:\GITKraken\Dual-core_Communication_Demo\Dual-core_Communication_Demo\MASTER\obj/../USER/main.c:87 (discriminator 1)
     5d6:	fec42783          	lw	a5,-20(s0)
     5da:	0789                	addi	a5,a5,2
     5dc:	0007c783          	lbu	a5,0(a5)
     5e0:	07a2                	slli	a5,a5,0x8
     5e2:	01079713          	slli	a4,a5,0x10
     5e6:	8741                	srai	a4,a4,0x10
     5e8:	fec42783          	lw	a5,-20(s0)
     5ec:	078d                	addi	a5,a5,3
     5ee:	0007c783          	lbu	a5,0(a5)
     5f2:	07c2                	slli	a5,a5,0x10
     5f4:	87c1                	srai	a5,a5,0x10
     5f6:	8fd9                	or	a5,a5,a4
     5f8:	01079713          	slli	a4,a5,0x10
     5fc:	8741                	srai	a4,a4,0x10
     5fe:	80e19d23          	sh	a4,-2022(gp) # 2000008a <slave_encoder_left>
E:\GITKraken\Dual-core_Communication_Demo\Dual-core_Communication_Demo\MASTER\obj/../USER/main.c:88
    if(line[4] == 0xB1)    slave_encoder_right = ((int16)line[5] << 8) | line[6];
     602:	fec42783          	lw	a5,-20(s0)
     606:	0791                	addi	a5,a5,4
     608:	0007c703          	lbu	a4,0(a5)
     60c:	0b100793          	li	a5,177
     610:	02f71863          	bne	a4,a5,640 <data_analysis+0x86>
E:\GITKraken\Dual-core_Communication_Demo\Dual-core_Communication_Demo\MASTER\obj/../USER/main.c:88 (discriminator 1)
     614:	fec42783          	lw	a5,-20(s0)
     618:	0795                	addi	a5,a5,5
     61a:	0007c783          	lbu	a5,0(a5)
     61e:	07a2                	slli	a5,a5,0x8
     620:	01079713          	slli	a4,a5,0x10
     624:	8741                	srai	a4,a4,0x10
     626:	fec42783          	lw	a5,-20(s0)
     62a:	0799                	addi	a5,a5,6
     62c:	0007c783          	lbu	a5,0(a5)
     630:	07c2                	slli	a5,a5,0x10
     632:	87c1                	srai	a5,a5,0x10
     634:	8fd9                	or	a5,a5,a4
     636:	01079713          	slli	a4,a5,0x10
     63a:	8741                	srai	a4,a4,0x10
     63c:	80e19e23          	sh	a4,-2020(gp) # 2000008c <slave_encoder_right>
E:\GITKraken\Dual-core_Communication_Demo\Dual-core_Communication_Demo\MASTER\obj/../USER/main.c:89
    if(line[7] == 0xB2)    slave_position      = ((int16)line[8] << 8) | line[9];
     640:	fec42783          	lw	a5,-20(s0)
     644:	079d                	addi	a5,a5,7
     646:	0007c703          	lbu	a4,0(a5)
     64a:	0b200793          	li	a5,178
     64e:	02f71863          	bne	a4,a5,67e <data_analysis+0xc4>
E:\GITKraken\Dual-core_Communication_Demo\Dual-core_Communication_Demo\MASTER\obj/../USER/main.c:89 (discriminator 1)
     652:	fec42783          	lw	a5,-20(s0)
     656:	07a1                	addi	a5,a5,8
     658:	0007c783          	lbu	a5,0(a5)
     65c:	07a2                	slli	a5,a5,0x8
     65e:	01079713          	slli	a4,a5,0x10
     662:	8741                	srai	a4,a4,0x10
     664:	fec42783          	lw	a5,-20(s0)
     668:	07a5                	addi	a5,a5,9
     66a:	0007c783          	lbu	a5,0(a5)
     66e:	07c2                	slli	a5,a5,0x10
     670:	87c1                	srai	a5,a5,0x10
     672:	8fd9                	or	a5,a5,a4
     674:	01079713          	slli	a4,a5,0x10
     678:	8741                	srai	a4,a4,0x10
     67a:	80e19f23          	sh	a4,-2018(gp) # 2000008e <slave_position>
E:\GITKraken\Dual-core_Communication_Demo\Dual-core_Communication_Demo\MASTER\obj/../USER/main.c:90
}
     67e:	0001                	nop
     680:	4472                	lw	s0,28(sp)
     682:	6105                	addi	sp,sp,32
     684:	8082                	ret

00000686 <USART3_IRQHandler>:
USART3_IRQHandler():
E:\GITKraken\Dual-core_Communication_Demo\Dual-core_Communication_Demo\MASTER\obj/../USER/main.c:101
//  @since      v1.0
//  Sample usage:
//-------------------------------------------------------------------------------------------------------------------
void USART3_IRQHandler(void) __attribute__((interrupt("WCH-Interrupt-fast")));
void USART3_IRQHandler(void)
{
     686:	1101                	addi	sp,sp,-32
     688:	ce22                	sw	s0,28(sp)
     68a:	1000                	addi	s0,sp,32
E:\GITKraken\Dual-core_Communication_Demo\Dual-core_Communication_Demo\MASTER\obj/../USER/main.c:103
    uint8 dat;
    if(USART_GetITStatus(USART3, USART_IT_RXNE) != RESET)
     68c:	52500593          	li	a1,1317
     690:	400057b7          	lui	a5,0x40005
     694:	80078513          	addi	a0,a5,-2048 # 40004800 <_eusrstack+0x1ffff800>
     698:	20e010ef          	jal	ra,18a6 <USART_GetITStatus>
     69c:	87aa                	mv	a5,a0
     69e:	c795                	beqz	a5,6ca <USART3_IRQHandler+0x44>
E:\GITKraken\Dual-core_Communication_Demo\Dual-core_Communication_Demo\MASTER\obj/../USER/main.c:105
    {
        USART_ClearITPendingBit(USART3, USART_IT_RXNE); //清除串口接收中断标志位
     6a0:	52500593          	li	a1,1317
     6a4:	400057b7          	lui	a5,0x40005
     6a8:	80078513          	addi	a0,a5,-2048 # 40004800 <_eusrstack+0x1ffff800>
     6ac:	2fc010ef          	jal	ra,19a8 <USART_ClearITPendingBit>
E:\GITKraken\Dual-core_Communication_Demo\Dual-core_Communication_Demo\MASTER\obj/../USER/main.c:106
        dat = USART_ReceiveData(USART3);                //获取串口数据
     6b0:	400057b7          	lui	a5,0x40005
     6b4:	80078513          	addi	a0,a5,-2048 # 40004800 <_eusrstack+0x1ffff800>
     6b8:	182010ef          	jal	ra,183a <USART_ReceiveData>
     6bc:	87aa                	mv	a5,a0
     6be:	fef407a3          	sb	a5,-17(s0)
E:\GITKraken\Dual-core_Communication_Demo\Dual-core_Communication_Demo\MASTER\obj/../USER/main.c:107
        get_slave_data(dat);                            //将每一个字节的串口数据存入temp_buff中。
     6c2:	fef44783          	lbu	a5,-17(s0)
     6c6:	853e                	mv	a0,a5
     6c8:	35b5                	jal	534 <get_slave_data>
E:\GITKraken\Dual-core_Communication_Demo\Dual-core_Communication_Demo\MASTER\obj/../USER/main.c:109
    }
}
     6ca:	0001                	nop
     6cc:	4472                	lw	s0,28(sp)
     6ce:	6105                	addi	sp,sp,32
     6d0:	30200073          	mret

000006d4 <EXTI0_IRQHandler>:
EXTI0_IRQHandler():
E:\GITKraken\Dual-core_Communication_Demo\Dual-core_Communication_Demo\MASTER\obj/../USER/main.c:120
//  @since      v1.0
//  Sample usage:
//-------------------------------------------------------------------------------------------------------------------
void EXTI0_IRQHandler(void) __attribute__((interrupt("WCH-Interrupt-fast")));
void EXTI0_IRQHandler(void)
{
     6d4:	1141                	addi	sp,sp,-16
     6d6:	c622                	sw	s0,12(sp)
     6d8:	0800                	addi	s0,sp,16
E:\GITKraken\Dual-core_Communication_Demo\Dual-core_Communication_Demo\MASTER\obj/../USER/main.c:121
    if(SET == EXTI_GetITStatus(EXTI_Line0))
     6da:	4505                	li	a0,1
     6dc:	2e35                	jal	a18 <EXTI_GetITStatus>
     6de:	872a                	mv	a4,a0
     6e0:	4785                	li	a5,1
     6e2:	02f71463          	bne	a4,a5,70a <EXTI0_IRQHandler+0x36>
E:\GITKraken\Dual-core_Communication_Demo\Dual-core_Communication_Demo\MASTER\obj/../USER/main.c:123
    {
        EXTI_ClearITPendingBit(EXTI_Line0);
     6e6:	4505                	li	a0,1
     6e8:	2659                	jal	a6e <EXTI_ClearITPendingBit>
E:\GITKraken\Dual-core_Communication_Demo\Dual-core_Communication_Demo\MASTER\obj/../USER/main.c:124
        while(uart_flag != E_OK);                       //等待接收数据
     6ea:	0001                	nop
E:\GITKraken\Dual-core_Communication_Demo\Dual-core_Communication_Demo\MASTER\obj/../USER/main.c:124 (discriminator 1)
     6ec:	8181c783          	lbu	a5,-2024(gp) # 20000088 <_edata>
     6f0:	0ff7f713          	andi	a4,a5,255
     6f4:	4785                	li	a5,1
     6f6:	fef71be3          	bne	a4,a5,6ec <EXTI0_IRQHandler+0x18>
E:\GITKraken\Dual-core_Communication_Demo\Dual-core_Communication_Demo\MASTER\obj/../USER/main.c:125
        uart_flag = E_START;                            //清空标志位
     6fa:	80018c23          	sb	zero,-2024(gp) # 20000088 <_edata>
E:\GITKraken\Dual-core_Communication_Demo\Dual-core_Communication_Demo\MASTER\obj/../USER/main.c:126
        data_analysis(temp_buff);                       //数据解析
     6fe:	84418513          	addi	a0,gp,-1980 # 200000b4 <temp_buff>
     702:	3d65                	jal	5ba <data_analysis>
E:\GITKraken\Dual-core_Communication_Demo\Dual-core_Communication_Demo\MASTER\obj/../USER/main.c:128

        show_flag = 1;                                  //屏幕显示标志位
     704:	4705                	li	a4,1
     706:	82e18023          	sb	a4,-2016(gp) # 20000090 <show_flag>
E:\GITKraken\Dual-core_Communication_Demo\Dual-core_Communication_Demo\MASTER\obj/../USER/main.c:130
    }
}
     70a:	0001                	nop
     70c:	4432                	lw	s0,12(sp)
     70e:	0141                	addi	sp,sp,16
     710:	30200073          	mret

00000714 <main>:
main():
E:\GITKraken\Dual-core_Communication_Demo\Dual-core_Communication_Demo\MASTER\obj/../USER/main.c:133

int main(void)
{
     714:	1141                	addi	sp,sp,-16
     716:	c606                	sw	ra,12(sp)
     718:	c422                	sw	s0,8(sp)
     71a:	0800                	addi	s0,sp,16
E:\GITKraken\Dual-core_Communication_Demo\Dual-core_Communication_Demo\MASTER\obj/../USER/main.c:134
    DisableGlobalIRQ();
     71c:	639010ef          	jal	ra,2554 <DisableGlobalIRQ>
E:\GITKraken\Dual-core_Communication_Demo\Dual-core_Communication_Demo\MASTER\obj/../USER/main.c:135
    board_init();           //务必保留，本函数用于初始化MPU 时钟 调试串口
     720:	4ee020ef          	jal	ra,2c0e <board_init>
E:\GITKraken\Dual-core_Communication_Demo\Dual-core_Communication_Demo\MASTER\obj/../USER/main.c:137

    ips114_init();
     724:	3e6010ef          	jal	ra,1b0a <ips114_init>
E:\GITKraken\Dual-core_Communication_Demo\Dual-core_Communication_Demo\MASTER\obj/../USER/main.c:143

    //串口的抢占优先级一定要比外部中断的抢占优先级高，这样才能实时接收从机数据
    //串口的抢占优先级一定要比外部中断的抢占优先级高，这样才能实时接收从机数据
    //串口的抢占优先级一定要比外部中断的抢占优先级高，这样才能实时接收从机数据

    uart_init(UART_3, 460800, UART3_TX_B10, UART3_RX_B11);  //串口3初始化，波特率460800
     728:	02100693          	li	a3,33
     72c:	02000613          	li	a2,32
     730:	000717b7          	lui	a5,0x71
     734:	80078593          	addi	a1,a5,-2048 # 70800 <_data_lma+0x6c01c>
     738:	4509                	li	a0,2
     73a:	380020ef          	jal	ra,2aba <uart_init>
E:\GITKraken\Dual-core_Communication_Demo\Dual-core_Communication_Demo\MASTER\obj/../USER/main.c:144
    uart_rx_irq(UART_3, ENABLE);                            //默认抢占优先级0 次优先级0。
     73e:	4585                	li	a1,1
     740:	4509                	li	a0,2
     742:	47c020ef          	jal	ra,2bbe <uart_rx_irq>
E:\GITKraken\Dual-core_Communication_Demo\Dual-core_Communication_Demo\MASTER\obj/../USER/main.c:145
    gpio_interrupt_init(A0, RISING, GPIO_INT_CONFIG);       //A0初始化为GPIO 上升沿触发
     746:	04800613          	li	a2,72
     74a:	45a1                	li	a1,8
     74c:	4501                	li	a0,0
     74e:	4a5010ef          	jal	ra,23f2 <gpio_interrupt_init>
E:\GITKraken\Dual-core_Communication_Demo\Dual-core_Communication_Demo\MASTER\obj/../USER/main.c:146
    nvic_init(EXTI0_IRQn, 1, 1, ENABLE);                    //EXTI0优先级配置，抢占优先级1，次优先级1
     752:	4685                	li	a3,1
     754:	4605                	li	a2,1
     756:	4585                	li	a1,1
     758:	4559                	li	a0,22
     75a:	519010ef          	jal	ra,2472 <nvic_init>
E:\GITKraken\Dual-core_Communication_Demo\Dual-core_Communication_Demo\MASTER\obj/../USER/main.c:150

    //此处编写用户代码(例如：外设初始化代码等)
    //总中断最后开启
    EnableGlobalIRQ(0);
     75e:	4501                	li	a0,0
     760:	631010ef          	jal	ra,2590 <EnableGlobalIRQ>
E:\GITKraken\Dual-core_Communication_Demo\Dual-core_Communication_Demo\MASTER\obj/../USER/main.c:153
    while(1)
    {
        if(show_flag)
     764:	8201c783          	lbu	a5,-2016(gp) # 20000090 <show_flag>
     768:	dff5                	beqz	a5,764 <main+0x50>
E:\GITKraken\Dual-core_Communication_Demo\Dual-core_Communication_Demo\MASTER\obj/../USER/main.c:156
        {
            //将接收到的从机数据显示到屏幕上。
            ips114_showint16(0, 0, slave_encoder_left);
     76a:	81a19783          	lh	a5,-2022(gp) # 2000008a <slave_encoder_left>
     76e:	863e                	mv	a2,a5
     770:	4581                	li	a1,0
     772:	4501                	li	a0,0
     774:	7bc010ef          	jal	ra,1f30 <ips114_showint16>
E:\GITKraken\Dual-core_Communication_Demo\Dual-core_Communication_Demo\MASTER\obj/../USER/main.c:157
            ips114_showint16(0, 1, slave_encoder_right);
     778:	81c19783          	lh	a5,-2020(gp) # 2000008c <slave_encoder_right>
     77c:	863e                	mv	a2,a5
     77e:	4585                	li	a1,1
     780:	4501                	li	a0,0
     782:	7ae010ef          	jal	ra,1f30 <ips114_showint16>
E:\GITKraken\Dual-core_Communication_Demo\Dual-core_Communication_Demo\MASTER\obj/../USER/main.c:158
            ips114_showint16(0, 2, slave_position);
     786:	81e19783          	lh	a5,-2018(gp) # 2000008e <slave_position>
     78a:	863e                	mv	a2,a5
     78c:	4589                	li	a1,2
     78e:	4501                	li	a0,0
     790:	7a0010ef          	jal	ra,1f30 <ips114_showint16>
E:\GITKraken\Dual-core_Communication_Demo\Dual-core_Communication_Demo\MASTER\obj/../USER/main.c:159
            show_flag = 0;
     794:	82018023          	sb	zero,-2016(gp) # 20000090 <show_flag>
E:\GITKraken\Dual-core_Communication_Demo\Dual-core_Communication_Demo\MASTER\obj/../USER/main.c:153
        if(show_flag)
     798:	b7f1                	j	764 <main+0x50>

0000079a <handle_reset>:
handle_reset():
E:\GITKraken\Dual-core_Communication_Demo\Dual-core_Communication_Demo\MASTER\obj/../Libraries/wch_libraries/Startup/startup_ch32v10x.S:147
	.weak	handle_reset
	.align	1
handle_reset:
.option push 
.option	norelax 
	la gp, __global_pointer$
     79a:	20000197          	auipc	gp,0x20000
     79e:	0d618193          	addi	gp,gp,214 # 20000870 <__global_pointer$>
E:\GITKraken\Dual-core_Communication_Demo\Dual-core_Communication_Demo\MASTER\obj/../Libraries/wch_libraries/Startup/startup_ch32v10x.S:150
.option	pop 
1:
	la sp, _eusrstack 
     7a2:	20005117          	auipc	sp,0x20005
     7a6:	85e10113          	addi	sp,sp,-1954 # 20005000 <_eusrstack>
E:\GITKraken\Dual-core_Communication_Demo\Dual-core_Communication_Demo\MASTER\obj/../Libraries/wch_libraries/Startup/startup_ch32v10x.S:153
2:
	/* Load data section from flash to RAM */
	la a0, _data_lma
     7aa:	00004517          	auipc	a0,0x4
     7ae:	03a50513          	addi	a0,a0,58 # 47e4 <_data_lma>
E:\GITKraken\Dual-core_Communication_Demo\Dual-core_Communication_Demo\MASTER\obj/../Libraries/wch_libraries/Startup/startup_ch32v10x.S:154
	la a1, _data_vma
     7b2:	20000597          	auipc	a1,0x20000
     7b6:	84e58593          	addi	a1,a1,-1970 # 20000000 <_data_vma>
E:\GITKraken\Dual-core_Communication_Demo\Dual-core_Communication_Demo\MASTER\obj/../Libraries/wch_libraries/Startup/startup_ch32v10x.S:155
	la a2, _edata
     7ba:	81818613          	addi	a2,gp,-2024 # 20000088 <_edata>
E:\GITKraken\Dual-core_Communication_Demo\Dual-core_Communication_Demo\MASTER\obj/../Libraries/wch_libraries/Startup/startup_ch32v10x.S:156
	bgeu a1, a2, 2f
     7be:	00c5fa63          	bgeu	a1,a2,7d2 <handle_reset+0x38>
E:\GITKraken\Dual-core_Communication_Demo\Dual-core_Communication_Demo\MASTER\obj/../Libraries/wch_libraries/Startup/startup_ch32v10x.S:158
1:
	lw t0, (a0)
     7c2:	00052283          	lw	t0,0(a0)
E:\GITKraken\Dual-core_Communication_Demo\Dual-core_Communication_Demo\MASTER\obj/../Libraries/wch_libraries/Startup/startup_ch32v10x.S:159
	sw t0, (a1)
     7c6:	0055a023          	sw	t0,0(a1)
E:\GITKraken\Dual-core_Communication_Demo\Dual-core_Communication_Demo\MASTER\obj/../Libraries/wch_libraries/Startup/startup_ch32v10x.S:160
	addi a0, a0, 4
     7ca:	0511                	addi	a0,a0,4
E:\GITKraken\Dual-core_Communication_Demo\Dual-core_Communication_Demo\MASTER\obj/../Libraries/wch_libraries/Startup/startup_ch32v10x.S:161
	addi a1, a1, 4
     7cc:	0591                	addi	a1,a1,4
E:\GITKraken\Dual-core_Communication_Demo\Dual-core_Communication_Demo\MASTER\obj/../Libraries/wch_libraries/Startup/startup_ch32v10x.S:162
	bltu a1, a2, 1b
     7ce:	fec5eae3          	bltu	a1,a2,7c2 <handle_reset+0x28>
E:\GITKraken\Dual-core_Communication_Demo\Dual-core_Communication_Demo\MASTER\obj/../Libraries/wch_libraries/Startup/startup_ch32v10x.S:165
2:
	/* clear bss section */
	la a0, _sbss
     7d2:	81818513          	addi	a0,gp,-2024 # 20000088 <_edata>
E:\GITKraken\Dual-core_Communication_Demo\Dual-core_Communication_Demo\MASTER\obj/../Libraries/wch_libraries/Startup/startup_ch32v10x.S:166
	la a1, _ebss
     7d6:	86018593          	addi	a1,gp,-1952 # 200000d0 <_ebss>
E:\GITKraken\Dual-core_Communication_Demo\Dual-core_Communication_Demo\MASTER\obj/../Libraries/wch_libraries/Startup/startup_ch32v10x.S:167
	bgeu a0, a1, 2f
     7da:	00b57763          	bgeu	a0,a1,7e8 <handle_reset+0x4e>
E:\GITKraken\Dual-core_Communication_Demo\Dual-core_Communication_Demo\MASTER\obj/../Libraries/wch_libraries/Startup/startup_ch32v10x.S:169
1:
	sw zero, (a0)
     7de:	00052023          	sw	zero,0(a0)
E:\GITKraken\Dual-core_Communication_Demo\Dual-core_Communication_Demo\MASTER\obj/../Libraries/wch_libraries/Startup/startup_ch32v10x.S:170
	addi a0, a0, 4
     7e2:	0511                	addi	a0,a0,4
E:\GITKraken\Dual-core_Communication_Demo\Dual-core_Communication_Demo\MASTER\obj/../Libraries/wch_libraries/Startup/startup_ch32v10x.S:171
	bltu a0, a1, 1b
     7e4:	feb56de3          	bltu	a0,a1,7de <handle_reset+0x44>
E:\GITKraken\Dual-core_Communication_Demo\Dual-core_Communication_Demo\MASTER\obj/../Libraries/wch_libraries/Startup/startup_ch32v10x.S:174
2:
	/* enable all interrupt */
  li t0, 0x88
     7e8:	08800293          	li	t0,136
E:\GITKraken\Dual-core_Communication_Demo\Dual-core_Communication_Demo\MASTER\obj/../Libraries/wch_libraries/Startup/startup_ch32v10x.S:175
  csrs mstatus, t0
     7ec:	3002a073          	csrs	mstatus,t0
E:\GITKraken\Dual-core_Communication_Demo\Dual-core_Communication_Demo\MASTER\obj/../Libraries/wch_libraries/Startup/startup_ch32v10x.S:176
	la t0, _vector_base
     7f0:	00000297          	auipc	t0,0x0
     7f4:	84828293          	addi	t0,t0,-1976 # 38 <_einit>
E:\GITKraken\Dual-core_Communication_Demo\Dual-core_Communication_Demo\MASTER\obj/../Libraries/wch_libraries/Startup/startup_ch32v10x.S:177
  ori t0, t0, 1
     7f8:	0012e293          	ori	t0,t0,1
E:\GITKraken\Dual-core_Communication_Demo\Dual-core_Communication_Demo\MASTER\obj/../Libraries/wch_libraries/Startup/startup_ch32v10x.S:178
	csrw mtvec, t0
     7fc:	30529073          	csrw	mtvec,t0
E:\GITKraken\Dual-core_Communication_Demo\Dual-core_Communication_Demo\MASTER\obj/../Libraries/wch_libraries/Startup/startup_ch32v10x.S:180

  jal  SystemInit
     800:	60c020ef          	jal	ra,2e0c <SystemInit>
E:\GITKraken\Dual-core_Communication_Demo\Dual-core_Communication_Demo\MASTER\obj/../Libraries/wch_libraries/Startup/startup_ch32v10x.S:181
	la t0, main
     804:	00000297          	auipc	t0,0x0
     808:	f1028293          	addi	t0,t0,-240 # 714 <main>
E:\GITKraken\Dual-core_Communication_Demo\Dual-core_Communication_Demo\MASTER\obj/../Libraries/wch_libraries/Startup/startup_ch32v10x.S:182
	csrw mepc, t0
     80c:	34129073          	csrw	mepc,t0
E:\GITKraken\Dual-core_Communication_Demo\Dual-core_Communication_Demo\MASTER\obj/../Libraries/wch_libraries/Startup/startup_ch32v10x.S:183
	mret
     810:	30200073          	mret

00000814 <DMA_GetFlagStatus>:
DMA_GetFlagStatus():
E:\GITKraken\Dual-core_Communication_Demo\Dual-core_Communication_Demo\MASTER\obj/../Libraries/wch_libraries/Peripheral/ch32v10x_dma.c:290
*                      DMA2_FLAG_HT5: DMA2 Channel5 half transfer flag.
*                      DMA2_FLAG_TE5: DMA2 Channel5 transfer error flag.
* Return         : The new state of DMAy_FLAG (SET or RESET). 
*********************************************************************************/
FlagStatus DMA_GetFlagStatus(uint32_t DMAy_FLAG)
{
     814:	7179                	addi	sp,sp,-48
     816:	d622                	sw	s0,44(sp)
     818:	1800                	addi	s0,sp,48
     81a:	fca42e23          	sw	a0,-36(s0)
E:\GITKraken\Dual-core_Communication_Demo\Dual-core_Communication_Demo\MASTER\obj/../Libraries/wch_libraries/Peripheral/ch32v10x_dma.c:291
  FlagStatus bitstatus = RESET;
     81e:	fe042623          	sw	zero,-20(s0)
E:\GITKraken\Dual-core_Communication_Demo\Dual-core_Communication_Demo\MASTER\obj/../Libraries/wch_libraries/Peripheral/ch32v10x_dma.c:292
  uint32_t tmpreg = 0;
     822:	fe042423          	sw	zero,-24(s0)
E:\GITKraken\Dual-core_Communication_Demo\Dual-core_Communication_Demo\MASTER\obj/../Libraries/wch_libraries/Peripheral/ch32v10x_dma.c:294
  
  if ((DMAy_FLAG & FLAG_Mask) != (uint32_t)RESET)
     826:	fdc42703          	lw	a4,-36(s0)
     82a:	100007b7          	lui	a5,0x10000
     82e:	8ff9                	and	a5,a5,a4
     830:	cb89                	beqz	a5,842 <DMA_GetFlagStatus+0x2e>
E:\GITKraken\Dual-core_Communication_Demo\Dual-core_Communication_Demo\MASTER\obj/../Libraries/wch_libraries/Peripheral/ch32v10x_dma.c:296
  {
    tmpreg = DMA2->INTFR ;
     832:	400207b7          	lui	a5,0x40020
     836:	40078793          	addi	a5,a5,1024 # 40020400 <_eusrstack+0x2001b400>
     83a:	439c                	lw	a5,0(a5)
     83c:	fef42423          	sw	a5,-24(s0)
     840:	a031                	j	84c <DMA_GetFlagStatus+0x38>
E:\GITKraken\Dual-core_Communication_Demo\Dual-core_Communication_Demo\MASTER\obj/../Libraries/wch_libraries/Peripheral/ch32v10x_dma.c:300
  }
  else
  {
    tmpreg = DMA1->INTFR ;
     842:	400207b7          	lui	a5,0x40020
     846:	439c                	lw	a5,0(a5)
     848:	fef42423          	sw	a5,-24(s0)
E:\GITKraken\Dual-core_Communication_Demo\Dual-core_Communication_Demo\MASTER\obj/../Libraries/wch_libraries/Peripheral/ch32v10x_dma.c:303
  }

  if ((tmpreg & DMAy_FLAG) != (uint32_t)RESET)
     84c:	fe842703          	lw	a4,-24(s0)
     850:	fdc42783          	lw	a5,-36(s0)
     854:	8ff9                	and	a5,a5,a4
     856:	c789                	beqz	a5,860 <DMA_GetFlagStatus+0x4c>
E:\GITKraken\Dual-core_Communication_Demo\Dual-core_Communication_Demo\MASTER\obj/../Libraries/wch_libraries/Peripheral/ch32v10x_dma.c:305
  {
    bitstatus = SET;
     858:	4785                	li	a5,1
     85a:	fef42623          	sw	a5,-20(s0)
     85e:	a019                	j	864 <DMA_GetFlagStatus+0x50>
E:\GITKraken\Dual-core_Communication_Demo\Dual-core_Communication_Demo\MASTER\obj/../Libraries/wch_libraries/Peripheral/ch32v10x_dma.c:309
  }
  else
  {
    bitstatus = RESET;
     860:	fe042623          	sw	zero,-20(s0)
E:\GITKraken\Dual-core_Communication_Demo\Dual-core_Communication_Demo\MASTER\obj/../Libraries/wch_libraries/Peripheral/ch32v10x_dma.c:312
  }
  
  return  bitstatus;
     864:	fec42783          	lw	a5,-20(s0)
E:\GITKraken\Dual-core_Communication_Demo\Dual-core_Communication_Demo\MASTER\obj/../Libraries/wch_libraries/Peripheral/ch32v10x_dma.c:313
}
     868:	853e                	mv	a0,a5
     86a:	5432                	lw	s0,44(sp)
     86c:	6145                	addi	sp,sp,48
     86e:	8082                	ret

00000870 <DMA_ClearFlag>:
DMA_ClearFlag():
E:\GITKraken\Dual-core_Communication_Demo\Dual-core_Communication_Demo\MASTER\obj/../Libraries/wch_libraries/Peripheral/ch32v10x_dma.c:371
*                      DMA2_FLAG_HT5: DMA2 Channel5 half transfer flag.
*                      DMA2_FLAG_TE5: DMA2 Channel5 transfer error flag.
* Return         : None 
*********************************************************************************/
void DMA_ClearFlag(uint32_t DMAy_FLAG)
{
     870:	1101                	addi	sp,sp,-32
     872:	ce22                	sw	s0,28(sp)
     874:	1000                	addi	s0,sp,32
     876:	fea42623          	sw	a0,-20(s0)
E:\GITKraken\Dual-core_Communication_Demo\Dual-core_Communication_Demo\MASTER\obj/../Libraries/wch_libraries/Peripheral/ch32v10x_dma.c:372
  if ((DMAy_FLAG & FLAG_Mask) != (uint32_t)RESET)
     87a:	fec42703          	lw	a4,-20(s0)
     87e:	100007b7          	lui	a5,0x10000
     882:	8ff9                	and	a5,a5,a4
     884:	cb89                	beqz	a5,896 <DMA_ClearFlag+0x26>
E:\GITKraken\Dual-core_Communication_Demo\Dual-core_Communication_Demo\MASTER\obj/../Libraries/wch_libraries/Peripheral/ch32v10x_dma.c:374
  {
    DMA2->INTFCR = DMAy_FLAG;
     886:	400207b7          	lui	a5,0x40020
     88a:	40078793          	addi	a5,a5,1024 # 40020400 <_eusrstack+0x2001b400>
     88e:	fec42703          	lw	a4,-20(s0)
     892:	c3d8                	sw	a4,4(a5)
E:\GITKraken\Dual-core_Communication_Demo\Dual-core_Communication_Demo\MASTER\obj/../Libraries/wch_libraries/Peripheral/ch32v10x_dma.c:380
  }
  else
  {
    DMA1->INTFCR = DMAy_FLAG;
  }
}
     894:	a031                	j	8a0 <DMA_ClearFlag+0x30>
E:\GITKraken\Dual-core_Communication_Demo\Dual-core_Communication_Demo\MASTER\obj/../Libraries/wch_libraries/Peripheral/ch32v10x_dma.c:378
    DMA1->INTFCR = DMAy_FLAG;
     896:	400207b7          	lui	a5,0x40020
     89a:	fec42703          	lw	a4,-20(s0)
     89e:	c3d8                	sw	a4,4(a5)
E:\GITKraken\Dual-core_Communication_Demo\Dual-core_Communication_Demo\MASTER\obj/../Libraries/wch_libraries/Peripheral/ch32v10x_dma.c:380
}
     8a0:	0001                	nop
     8a2:	4472                	lw	s0,28(sp)
     8a4:	6105                	addi	sp,sp,32
     8a6:	8082                	ret

000008a8 <EXTI_Init>:
EXTI_Init():
E:\GITKraken\Dual-core_Communication_Demo\Dual-core_Communication_Demo\MASTER\obj/../Libraries/wch_libraries/Peripheral/ch32v10x_exti.c:37
*                  parameters in the EXTI_InitStruct.
* Input          : EXTI_InitStruct: pointer to a EXTI_InitTypeDef structure
* Return         : None
*********************************************************************************/	
void EXTI_Init(EXTI_InitTypeDef* EXTI_InitStruct)
{
     8a8:	7179                	addi	sp,sp,-48
     8aa:	d622                	sw	s0,44(sp)
     8ac:	1800                	addi	s0,sp,48
     8ae:	fca42e23          	sw	a0,-36(s0)
E:\GITKraken\Dual-core_Communication_Demo\Dual-core_Communication_Demo\MASTER\obj/../Libraries/wch_libraries/Peripheral/ch32v10x_exti.c:38
  uint32_t tmp = 0;
     8b2:	fe042623          	sw	zero,-20(s0)
E:\GITKraken\Dual-core_Communication_Demo\Dual-core_Communication_Demo\MASTER\obj/../Libraries/wch_libraries/Peripheral/ch32v10x_exti.c:40

  tmp = (uint32_t)EXTI_BASE;
     8b6:	400107b7          	lui	a5,0x40010
     8ba:	40078793          	addi	a5,a5,1024 # 40010400 <_eusrstack+0x2000b400>
     8be:	fef42623          	sw	a5,-20(s0)
E:\GITKraken\Dual-core_Communication_Demo\Dual-core_Communication_Demo\MASTER\obj/../Libraries/wch_libraries/Peripheral/ch32v10x_exti.c:41
  if (EXTI_InitStruct->EXTI_LineCmd != DISABLE)
     8c2:	fdc42783          	lw	a5,-36(s0)
     8c6:	47dc                	lw	a5,12(a5)
     8c8:	12078063          	beqz	a5,9e8 <EXTI_Init+0x140>
E:\GITKraken\Dual-core_Communication_Demo\Dual-core_Communication_Demo\MASTER\obj/../Libraries/wch_libraries/Peripheral/ch32v10x_exti.c:43
  {
    EXTI->INTENR &= ~EXTI_InitStruct->EXTI_Line;
     8cc:	400107b7          	lui	a5,0x40010
     8d0:	40078793          	addi	a5,a5,1024 # 40010400 <_eusrstack+0x2000b400>
     8d4:	4394                	lw	a3,0(a5)
     8d6:	fdc42783          	lw	a5,-36(s0)
     8da:	439c                	lw	a5,0(a5)
     8dc:	fff7c713          	not	a4,a5
     8e0:	400107b7          	lui	a5,0x40010
     8e4:	40078793          	addi	a5,a5,1024 # 40010400 <_eusrstack+0x2000b400>
     8e8:	8f75                	and	a4,a4,a3
     8ea:	c398                	sw	a4,0(a5)
E:\GITKraken\Dual-core_Communication_Demo\Dual-core_Communication_Demo\MASTER\obj/../Libraries/wch_libraries/Peripheral/ch32v10x_exti.c:44
    EXTI->EVENR &= ~EXTI_InitStruct->EXTI_Line;
     8ec:	400107b7          	lui	a5,0x40010
     8f0:	40078793          	addi	a5,a5,1024 # 40010400 <_eusrstack+0x2000b400>
     8f4:	43d4                	lw	a3,4(a5)
     8f6:	fdc42783          	lw	a5,-36(s0)
     8fa:	439c                	lw	a5,0(a5)
     8fc:	fff7c713          	not	a4,a5
     900:	400107b7          	lui	a5,0x40010
     904:	40078793          	addi	a5,a5,1024 # 40010400 <_eusrstack+0x2000b400>
     908:	8f75                	and	a4,a4,a3
     90a:	c3d8                	sw	a4,4(a5)
E:\GITKraken\Dual-core_Communication_Demo\Dual-core_Communication_Demo\MASTER\obj/../Libraries/wch_libraries/Peripheral/ch32v10x_exti.c:45
    tmp += EXTI_InitStruct->EXTI_Mode;
     90c:	fdc42783          	lw	a5,-36(s0)
     910:	43dc                	lw	a5,4(a5)
     912:	fec42703          	lw	a4,-20(s0)
     916:	97ba                	add	a5,a5,a4
     918:	fef42623          	sw	a5,-20(s0)
E:\GITKraken\Dual-core_Communication_Demo\Dual-core_Communication_Demo\MASTER\obj/../Libraries/wch_libraries/Peripheral/ch32v10x_exti.c:46
    *(__IO uint32_t *) tmp |= EXTI_InitStruct->EXTI_Line;
     91c:	fec42783          	lw	a5,-20(s0)
     920:	4394                	lw	a3,0(a5)
     922:	fdc42783          	lw	a5,-36(s0)
     926:	4398                	lw	a4,0(a5)
     928:	fec42783          	lw	a5,-20(s0)
     92c:	8f55                	or	a4,a4,a3
     92e:	c398                	sw	a4,0(a5)
E:\GITKraken\Dual-core_Communication_Demo\Dual-core_Communication_Demo\MASTER\obj/../Libraries/wch_libraries/Peripheral/ch32v10x_exti.c:47
    EXTI->RTENR &= ~EXTI_InitStruct->EXTI_Line;
     930:	400107b7          	lui	a5,0x40010
     934:	40078793          	addi	a5,a5,1024 # 40010400 <_eusrstack+0x2000b400>
     938:	4794                	lw	a3,8(a5)
     93a:	fdc42783          	lw	a5,-36(s0)
     93e:	439c                	lw	a5,0(a5)
     940:	fff7c713          	not	a4,a5
     944:	400107b7          	lui	a5,0x40010
     948:	40078793          	addi	a5,a5,1024 # 40010400 <_eusrstack+0x2000b400>
     94c:	8f75                	and	a4,a4,a3
     94e:	c798                	sw	a4,8(a5)
E:\GITKraken\Dual-core_Communication_Demo\Dual-core_Communication_Demo\MASTER\obj/../Libraries/wch_libraries/Peripheral/ch32v10x_exti.c:48
    EXTI->FTENR &= ~EXTI_InitStruct->EXTI_Line;
     950:	400107b7          	lui	a5,0x40010
     954:	40078793          	addi	a5,a5,1024 # 40010400 <_eusrstack+0x2000b400>
     958:	47d4                	lw	a3,12(a5)
     95a:	fdc42783          	lw	a5,-36(s0)
     95e:	439c                	lw	a5,0(a5)
     960:	fff7c713          	not	a4,a5
     964:	400107b7          	lui	a5,0x40010
     968:	40078793          	addi	a5,a5,1024 # 40010400 <_eusrstack+0x2000b400>
     96c:	8f75                	and	a4,a4,a3
     96e:	c7d8                	sw	a4,12(a5)
E:\GITKraken\Dual-core_Communication_Demo\Dual-core_Communication_Demo\MASTER\obj/../Libraries/wch_libraries/Peripheral/ch32v10x_exti.c:49
    if (EXTI_InitStruct->EXTI_Trigger == EXTI_Trigger_Rising_Falling)
     970:	fdc42783          	lw	a5,-36(s0)
     974:	4798                	lw	a4,8(a5)
     976:	47c1                	li	a5,16
     978:	02f71f63          	bne	a4,a5,9b6 <EXTI_Init+0x10e>
E:\GITKraken\Dual-core_Communication_Demo\Dual-core_Communication_Demo\MASTER\obj/../Libraries/wch_libraries/Peripheral/ch32v10x_exti.c:51
    {
      EXTI->RTENR |= EXTI_InitStruct->EXTI_Line;
     97c:	400107b7          	lui	a5,0x40010
     980:	40078793          	addi	a5,a5,1024 # 40010400 <_eusrstack+0x2000b400>
     984:	4794                	lw	a3,8(a5)
     986:	fdc42783          	lw	a5,-36(s0)
     98a:	4398                	lw	a4,0(a5)
     98c:	400107b7          	lui	a5,0x40010
     990:	40078793          	addi	a5,a5,1024 # 40010400 <_eusrstack+0x2000b400>
     994:	8f55                	or	a4,a4,a3
     996:	c798                	sw	a4,8(a5)
E:\GITKraken\Dual-core_Communication_Demo\Dual-core_Communication_Demo\MASTER\obj/../Libraries/wch_libraries/Peripheral/ch32v10x_exti.c:52
      EXTI->FTENR |= EXTI_InitStruct->EXTI_Line;
     998:	400107b7          	lui	a5,0x40010
     99c:	40078793          	addi	a5,a5,1024 # 40010400 <_eusrstack+0x2000b400>
     9a0:	47d4                	lw	a3,12(a5)
     9a2:	fdc42783          	lw	a5,-36(s0)
     9a6:	4398                	lw	a4,0(a5)
     9a8:	400107b7          	lui	a5,0x40010
     9ac:	40078793          	addi	a5,a5,1024 # 40010400 <_eusrstack+0x2000b400>
     9b0:	8f55                	or	a4,a4,a3
     9b2:	c7d8                	sw	a4,12(a5)
E:\GITKraken\Dual-core_Communication_Demo\Dual-core_Communication_Demo\MASTER\obj/../Libraries/wch_libraries/Peripheral/ch32v10x_exti.c:66
  else
  {
    tmp += EXTI_InitStruct->EXTI_Mode;
    *(__IO uint32_t *) tmp &= ~EXTI_InitStruct->EXTI_Line;
  }
}
     9b4:	a8b1                	j	a10 <EXTI_Init+0x168>
E:\GITKraken\Dual-core_Communication_Demo\Dual-core_Communication_Demo\MASTER\obj/../Libraries/wch_libraries/Peripheral/ch32v10x_exti.c:56
      tmp = (uint32_t)EXTI_BASE;
     9b6:	400107b7          	lui	a5,0x40010
     9ba:	40078793          	addi	a5,a5,1024 # 40010400 <_eusrstack+0x2000b400>
     9be:	fef42623          	sw	a5,-20(s0)
E:\GITKraken\Dual-core_Communication_Demo\Dual-core_Communication_Demo\MASTER\obj/../Libraries/wch_libraries/Peripheral/ch32v10x_exti.c:57
      tmp += EXTI_InitStruct->EXTI_Trigger;
     9c2:	fdc42783          	lw	a5,-36(s0)
     9c6:	479c                	lw	a5,8(a5)
     9c8:	fec42703          	lw	a4,-20(s0)
     9cc:	97ba                	add	a5,a5,a4
     9ce:	fef42623          	sw	a5,-20(s0)
E:\GITKraken\Dual-core_Communication_Demo\Dual-core_Communication_Demo\MASTER\obj/../Libraries/wch_libraries/Peripheral/ch32v10x_exti.c:58
      *(__IO uint32_t *) tmp |= EXTI_InitStruct->EXTI_Line;
     9d2:	fec42783          	lw	a5,-20(s0)
     9d6:	4394                	lw	a3,0(a5)
     9d8:	fdc42783          	lw	a5,-36(s0)
     9dc:	4398                	lw	a4,0(a5)
     9de:	fec42783          	lw	a5,-20(s0)
     9e2:	8f55                	or	a4,a4,a3
     9e4:	c398                	sw	a4,0(a5)
E:\GITKraken\Dual-core_Communication_Demo\Dual-core_Communication_Demo\MASTER\obj/../Libraries/wch_libraries/Peripheral/ch32v10x_exti.c:66
}
     9e6:	a02d                	j	a10 <EXTI_Init+0x168>
E:\GITKraken\Dual-core_Communication_Demo\Dual-core_Communication_Demo\MASTER\obj/../Libraries/wch_libraries/Peripheral/ch32v10x_exti.c:63
    tmp += EXTI_InitStruct->EXTI_Mode;
     9e8:	fdc42783          	lw	a5,-36(s0)
     9ec:	43dc                	lw	a5,4(a5)
     9ee:	fec42703          	lw	a4,-20(s0)
     9f2:	97ba                	add	a5,a5,a4
     9f4:	fef42623          	sw	a5,-20(s0)
E:\GITKraken\Dual-core_Communication_Demo\Dual-core_Communication_Demo\MASTER\obj/../Libraries/wch_libraries/Peripheral/ch32v10x_exti.c:64
    *(__IO uint32_t *) tmp &= ~EXTI_InitStruct->EXTI_Line;
     9f8:	fec42783          	lw	a5,-20(s0)
     9fc:	4394                	lw	a3,0(a5)
     9fe:	fdc42783          	lw	a5,-36(s0)
     a02:	439c                	lw	a5,0(a5)
     a04:	fff7c713          	not	a4,a5
     a08:	fec42783          	lw	a5,-20(s0)
     a0c:	8f75                	and	a4,a4,a3
     a0e:	c398                	sw	a4,0(a5)
E:\GITKraken\Dual-core_Communication_Demo\Dual-core_Communication_Demo\MASTER\obj/../Libraries/wch_libraries/Peripheral/ch32v10x_exti.c:66
}
     a10:	0001                	nop
     a12:	5432                	lw	s0,44(sp)
     a14:	6145                	addi	sp,sp,48
     a16:	8082                	ret

00000a18 <EXTI_GetITStatus>:
EXTI_GetITStatus():
E:\GITKraken\Dual-core_Communication_Demo\Dual-core_Communication_Demo\MASTER\obj/../Libraries/wch_libraries/Peripheral/ch32v10x_exti.c:131
* Description    : Checks whether the specified EXTI line is asserted or not.
* Input          : EXTI_Line: specifies the EXTI lines to be enabled or disabled.
* Return         : The new state of EXTI_Line (SET or RESET).
*********************************************************************************/	
ITStatus EXTI_GetITStatus(uint32_t EXTI_Line)
{
     a18:	7179                	addi	sp,sp,-48
     a1a:	d622                	sw	s0,44(sp)
     a1c:	1800                	addi	s0,sp,48
     a1e:	fca42e23          	sw	a0,-36(s0)
E:\GITKraken\Dual-core_Communication_Demo\Dual-core_Communication_Demo\MASTER\obj/../Libraries/wch_libraries/Peripheral/ch32v10x_exti.c:132
  ITStatus bitstatus = RESET;
     a22:	fe042623          	sw	zero,-20(s0)
E:\GITKraken\Dual-core_Communication_Demo\Dual-core_Communication_Demo\MASTER\obj/../Libraries/wch_libraries/Peripheral/ch32v10x_exti.c:133
  uint32_t enablestatus = 0;
     a26:	fe042423          	sw	zero,-24(s0)
E:\GITKraken\Dual-core_Communication_Demo\Dual-core_Communication_Demo\MASTER\obj/../Libraries/wch_libraries/Peripheral/ch32v10x_exti.c:135
  
  enablestatus =  EXTI->INTENR & EXTI_Line;
     a2a:	400107b7          	lui	a5,0x40010
     a2e:	40078793          	addi	a5,a5,1024 # 40010400 <_eusrstack+0x2000b400>
     a32:	439c                	lw	a5,0(a5)
     a34:	fdc42703          	lw	a4,-36(s0)
     a38:	8ff9                	and	a5,a5,a4
     a3a:	fef42423          	sw	a5,-24(s0)
E:\GITKraken\Dual-core_Communication_Demo\Dual-core_Communication_Demo\MASTER\obj/../Libraries/wch_libraries/Peripheral/ch32v10x_exti.c:136
  if (((EXTI->INTFR & EXTI_Line) != (uint32_t)RESET) && (enablestatus != (uint32_t)RESET))
     a3e:	400107b7          	lui	a5,0x40010
     a42:	40078793          	addi	a5,a5,1024 # 40010400 <_eusrstack+0x2000b400>
     a46:	4bd8                	lw	a4,20(a5)
     a48:	fdc42783          	lw	a5,-36(s0)
     a4c:	8ff9                	and	a5,a5,a4
     a4e:	cb81                	beqz	a5,a5e <EXTI_GetITStatus+0x46>
E:\GITKraken\Dual-core_Communication_Demo\Dual-core_Communication_Demo\MASTER\obj/../Libraries/wch_libraries/Peripheral/ch32v10x_exti.c:136 (discriminator 1)
     a50:	fe842783          	lw	a5,-24(s0)
     a54:	c789                	beqz	a5,a5e <EXTI_GetITStatus+0x46>
E:\GITKraken\Dual-core_Communication_Demo\Dual-core_Communication_Demo\MASTER\obj/../Libraries/wch_libraries/Peripheral/ch32v10x_exti.c:138
  {
    bitstatus = SET;
     a56:	4785                	li	a5,1
     a58:	fef42623          	sw	a5,-20(s0)
     a5c:	a019                	j	a62 <EXTI_GetITStatus+0x4a>
E:\GITKraken\Dual-core_Communication_Demo\Dual-core_Communication_Demo\MASTER\obj/../Libraries/wch_libraries/Peripheral/ch32v10x_exti.c:142
  }
  else
  {
    bitstatus = RESET;
     a5e:	fe042623          	sw	zero,-20(s0)
E:\GITKraken\Dual-core_Communication_Demo\Dual-core_Communication_Demo\MASTER\obj/../Libraries/wch_libraries/Peripheral/ch32v10x_exti.c:144
  }
  return bitstatus;
     a62:	fec42783          	lw	a5,-20(s0)
E:\GITKraken\Dual-core_Communication_Demo\Dual-core_Communication_Demo\MASTER\obj/../Libraries/wch_libraries/Peripheral/ch32v10x_exti.c:145
}
     a66:	853e                	mv	a0,a5
     a68:	5432                	lw	s0,44(sp)
     a6a:	6145                	addi	sp,sp,48
     a6c:	8082                	ret

00000a6e <EXTI_ClearITPendingBit>:
EXTI_ClearITPendingBit():
E:\GITKraken\Dual-core_Communication_Demo\Dual-core_Communication_Demo\MASTER\obj/../Libraries/wch_libraries/Peripheral/ch32v10x_exti.c:154
* Description    : Clears the EXTI's line pending bits.
* Input          : EXTI_Line: specifies the EXTI lines to be enabled or disabled.
* Return         : None
*********************************************************************************/
void EXTI_ClearITPendingBit(uint32_t EXTI_Line)
{  
     a6e:	1101                	addi	sp,sp,-32
     a70:	ce22                	sw	s0,28(sp)
     a72:	1000                	addi	s0,sp,32
     a74:	fea42623          	sw	a0,-20(s0)
E:\GITKraken\Dual-core_Communication_Demo\Dual-core_Communication_Demo\MASTER\obj/../Libraries/wch_libraries/Peripheral/ch32v10x_exti.c:155
  EXTI->INTFR = EXTI_Line;
     a78:	400107b7          	lui	a5,0x40010
     a7c:	40078793          	addi	a5,a5,1024 # 40010400 <_eusrstack+0x2000b400>
     a80:	fec42703          	lw	a4,-20(s0)
     a84:	cbd8                	sw	a4,20(a5)
E:\GITKraken\Dual-core_Communication_Demo\Dual-core_Communication_Demo\MASTER\obj/../Libraries/wch_libraries/Peripheral/ch32v10x_exti.c:156
}
     a86:	0001                	nop
     a88:	4472                	lw	s0,28(sp)
     a8a:	6105                	addi	sp,sp,32
     a8c:	8082                	ret

00000a8e <GPIO_Init>:
GPIO_Init():
E:\GITKraken\Dual-core_Communication_Demo\Dual-core_Communication_Demo\MASTER\obj/../Libraries/wch_libraries/Peripheral/ch32v10x_gpio.c:88
* Input          : GPIO_InitStruct: pointer to a GPIO_InitTypeDef structure that
*      contains the configuration information for the specified GPIO peripheral.
* Return         : None
*******************************************************************************/
void GPIO_Init(GPIO_TypeDef* GPIOx, GPIO_InitTypeDef* GPIO_InitStruct)
{
     a8e:	7139                	addi	sp,sp,-64
     a90:	de22                	sw	s0,60(sp)
     a92:	0080                	addi	s0,sp,64
     a94:	fca42623          	sw	a0,-52(s0)
     a98:	fcb42423          	sw	a1,-56(s0)
E:\GITKraken\Dual-core_Communication_Demo\Dual-core_Communication_Demo\MASTER\obj/../Libraries/wch_libraries/Peripheral/ch32v10x_gpio.c:89
  uint32_t currentmode = 0x00, currentpin = 0x00, pinpos = 0x00, pos = 0x00;
     a9c:	fe042623          	sw	zero,-20(s0)
     aa0:	fe042023          	sw	zero,-32(s0)
     aa4:	fe042423          	sw	zero,-24(s0)
     aa8:	fc042e23          	sw	zero,-36(s0)
E:\GITKraken\Dual-core_Communication_Demo\Dual-core_Communication_Demo\MASTER\obj/../Libraries/wch_libraries/Peripheral/ch32v10x_gpio.c:90
  uint32_t tmpreg = 0x00, pinmask = 0x00;
     aac:	fe042223          	sw	zero,-28(s0)
     ab0:	fc042c23          	sw	zero,-40(s0)
E:\GITKraken\Dual-core_Communication_Demo\Dual-core_Communication_Demo\MASTER\obj/../Libraries/wch_libraries/Peripheral/ch32v10x_gpio.c:92

  currentmode = ((uint32_t)GPIO_InitStruct->GPIO_Mode) & ((uint32_t)0x0F);
     ab4:	fc842783          	lw	a5,-56(s0)
     ab8:	479c                	lw	a5,8(a5)
     aba:	8bbd                	andi	a5,a5,15
     abc:	fef42623          	sw	a5,-20(s0)
E:\GITKraken\Dual-core_Communication_Demo\Dual-core_Communication_Demo\MASTER\obj/../Libraries/wch_libraries/Peripheral/ch32v10x_gpio.c:94
	
  if ((((uint32_t)GPIO_InitStruct->GPIO_Mode) & ((uint32_t)0x10)) != 0x00)
     ac0:	fc842783          	lw	a5,-56(s0)
     ac4:	479c                	lw	a5,8(a5)
     ac6:	8bc1                	andi	a5,a5,16
     ac8:	cb89                	beqz	a5,ada <GPIO_Init+0x4c>
E:\GITKraken\Dual-core_Communication_Demo\Dual-core_Communication_Demo\MASTER\obj/../Libraries/wch_libraries/Peripheral/ch32v10x_gpio.c:96
  { 
    currentmode |= (uint32_t)GPIO_InitStruct->GPIO_Speed;
     aca:	fc842783          	lw	a5,-56(s0)
     ace:	43dc                	lw	a5,4(a5)
     ad0:	fec42703          	lw	a4,-20(s0)
     ad4:	8fd9                	or	a5,a5,a4
     ad6:	fef42623          	sw	a5,-20(s0)
E:\GITKraken\Dual-core_Communication_Demo\Dual-core_Communication_Demo\MASTER\obj/../Libraries/wch_libraries/Peripheral/ch32v10x_gpio.c:99
  }

  if (((uint32_t)GPIO_InitStruct->GPIO_Pin & ((uint32_t)0x00FF)) != 0x00)
     ada:	fc842783          	lw	a5,-56(s0)
     ade:	0007d783          	lhu	a5,0(a5)
     ae2:	0ff7f793          	andi	a5,a5,255
     ae6:	cff1                	beqz	a5,bc2 <GPIO_Init+0x134>
E:\GITKraken\Dual-core_Communication_Demo\Dual-core_Communication_Demo\MASTER\obj/../Libraries/wch_libraries/Peripheral/ch32v10x_gpio.c:101
  {
    tmpreg = GPIOx->CFGLR;
     ae8:	fcc42783          	lw	a5,-52(s0)
     aec:	439c                	lw	a5,0(a5)
     aee:	fef42223          	sw	a5,-28(s0)
E:\GITKraken\Dual-core_Communication_Demo\Dual-core_Communication_Demo\MASTER\obj/../Libraries/wch_libraries/Peripheral/ch32v10x_gpio.c:103
		
    for (pinpos = 0x00; pinpos < 0x08; pinpos++)
     af2:	fe042423          	sw	zero,-24(s0)
     af6:	a865                	j	bae <GPIO_Init+0x120>
E:\GITKraken\Dual-core_Communication_Demo\Dual-core_Communication_Demo\MASTER\obj/../Libraries/wch_libraries/Peripheral/ch32v10x_gpio.c:105
    {
      pos = ((uint32_t)0x01) << pinpos;
     af8:	fe842783          	lw	a5,-24(s0)
     afc:	4705                	li	a4,1
     afe:	00f717b3          	sll	a5,a4,a5
     b02:	fcf42e23          	sw	a5,-36(s0)
E:\GITKraken\Dual-core_Communication_Demo\Dual-core_Communication_Demo\MASTER\obj/../Libraries/wch_libraries/Peripheral/ch32v10x_gpio.c:106
      currentpin = (GPIO_InitStruct->GPIO_Pin) & pos;
     b06:	fc842783          	lw	a5,-56(s0)
     b0a:	0007d783          	lhu	a5,0(a5)
     b0e:	873e                	mv	a4,a5
     b10:	fdc42783          	lw	a5,-36(s0)
     b14:	8ff9                	and	a5,a5,a4
     b16:	fef42023          	sw	a5,-32(s0)
E:\GITKraken\Dual-core_Communication_Demo\Dual-core_Communication_Demo\MASTER\obj/../Libraries/wch_libraries/Peripheral/ch32v10x_gpio.c:108
			
      if (currentpin == pos)
     b1a:	fe042703          	lw	a4,-32(s0)
     b1e:	fdc42783          	lw	a5,-36(s0)
     b22:	08f71163          	bne	a4,a5,ba4 <GPIO_Init+0x116>
E:\GITKraken\Dual-core_Communication_Demo\Dual-core_Communication_Demo\MASTER\obj/../Libraries/wch_libraries/Peripheral/ch32v10x_gpio.c:110
      {
        pos = pinpos << 2;
     b26:	fe842783          	lw	a5,-24(s0)
     b2a:	078a                	slli	a5,a5,0x2
     b2c:	fcf42e23          	sw	a5,-36(s0)
E:\GITKraken\Dual-core_Communication_Demo\Dual-core_Communication_Demo\MASTER\obj/../Libraries/wch_libraries/Peripheral/ch32v10x_gpio.c:111
        pinmask = ((uint32_t)0x0F) << pos;
     b30:	fdc42783          	lw	a5,-36(s0)
     b34:	473d                	li	a4,15
     b36:	00f717b3          	sll	a5,a4,a5
     b3a:	fcf42c23          	sw	a5,-40(s0)
E:\GITKraken\Dual-core_Communication_Demo\Dual-core_Communication_Demo\MASTER\obj/../Libraries/wch_libraries/Peripheral/ch32v10x_gpio.c:112
        tmpreg &= ~pinmask;
     b3e:	fd842783          	lw	a5,-40(s0)
     b42:	fff7c793          	not	a5,a5
     b46:	fe442703          	lw	a4,-28(s0)
     b4a:	8ff9                	and	a5,a5,a4
     b4c:	fef42223          	sw	a5,-28(s0)
E:\GITKraken\Dual-core_Communication_Demo\Dual-core_Communication_Demo\MASTER\obj/../Libraries/wch_libraries/Peripheral/ch32v10x_gpio.c:113
        tmpreg |= (currentmode << pos);
     b50:	fdc42783          	lw	a5,-36(s0)
     b54:	fec42703          	lw	a4,-20(s0)
     b58:	00f717b3          	sll	a5,a4,a5
     b5c:	fe442703          	lw	a4,-28(s0)
     b60:	8fd9                	or	a5,a5,a4
     b62:	fef42223          	sw	a5,-28(s0)
E:\GITKraken\Dual-core_Communication_Demo\Dual-core_Communication_Demo\MASTER\obj/../Libraries/wch_libraries/Peripheral/ch32v10x_gpio.c:115

        if (GPIO_InitStruct->GPIO_Mode == GPIO_Mode_IPD)
     b66:	fc842783          	lw	a5,-56(s0)
     b6a:	4798                	lw	a4,8(a5)
     b6c:	02800793          	li	a5,40
     b70:	00f71b63          	bne	a4,a5,b86 <GPIO_Init+0xf8>
E:\GITKraken\Dual-core_Communication_Demo\Dual-core_Communication_Demo\MASTER\obj/../Libraries/wch_libraries/Peripheral/ch32v10x_gpio.c:117
        {
          GPIOx->BCR = (((uint32_t)0x01) << pinpos);
     b74:	fe842783          	lw	a5,-24(s0)
     b78:	4705                	li	a4,1
     b7a:	00f71733          	sll	a4,a4,a5
     b7e:	fcc42783          	lw	a5,-52(s0)
     b82:	cbd8                	sw	a4,20(a5)
     b84:	a005                	j	ba4 <GPIO_Init+0x116>
E:\GITKraken\Dual-core_Communication_Demo\Dual-core_Communication_Demo\MASTER\obj/../Libraries/wch_libraries/Peripheral/ch32v10x_gpio.c:121
        }
        else
        {
          if (GPIO_InitStruct->GPIO_Mode == GPIO_Mode_IPU)
     b86:	fc842783          	lw	a5,-56(s0)
     b8a:	4798                	lw	a4,8(a5)
     b8c:	04800793          	li	a5,72
     b90:	00f71a63          	bne	a4,a5,ba4 <GPIO_Init+0x116>
E:\GITKraken\Dual-core_Communication_Demo\Dual-core_Communication_Demo\MASTER\obj/../Libraries/wch_libraries/Peripheral/ch32v10x_gpio.c:123
          {
            GPIOx->BSHR = (((uint32_t)0x01) << pinpos);
     b94:	fe842783          	lw	a5,-24(s0)
     b98:	4705                	li	a4,1
     b9a:	00f71733          	sll	a4,a4,a5
     b9e:	fcc42783          	lw	a5,-52(s0)
     ba2:	cb98                	sw	a4,16(a5)
E:\GITKraken\Dual-core_Communication_Demo\Dual-core_Communication_Demo\MASTER\obj/../Libraries/wch_libraries/Peripheral/ch32v10x_gpio.c:103 (discriminator 2)
    for (pinpos = 0x00; pinpos < 0x08; pinpos++)
     ba4:	fe842783          	lw	a5,-24(s0)
     ba8:	0785                	addi	a5,a5,1
     baa:	fef42423          	sw	a5,-24(s0)
E:\GITKraken\Dual-core_Communication_Demo\Dual-core_Communication_Demo\MASTER\obj/../Libraries/wch_libraries/Peripheral/ch32v10x_gpio.c:103 (discriminator 1)
     bae:	fe842703          	lw	a4,-24(s0)
     bb2:	479d                	li	a5,7
     bb4:	f4e7f2e3          	bgeu	a5,a4,af8 <GPIO_Init+0x6a>
E:\GITKraken\Dual-core_Communication_Demo\Dual-core_Communication_Demo\MASTER\obj/../Libraries/wch_libraries/Peripheral/ch32v10x_gpio.c:128
          }
        }
      }
    }
    GPIOx->CFGLR = tmpreg;
     bb8:	fcc42783          	lw	a5,-52(s0)
     bbc:	fe442703          	lw	a4,-28(s0)
     bc0:	c398                	sw	a4,0(a5)
E:\GITKraken\Dual-core_Communication_Demo\Dual-core_Communication_Demo\MASTER\obj/../Libraries/wch_libraries/Peripheral/ch32v10x_gpio.c:131
  }

  if (GPIO_InitStruct->GPIO_Pin > 0x00FF)
     bc2:	fc842783          	lw	a5,-56(s0)
     bc6:	0007d703          	lhu	a4,0(a5)
     bca:	0ff00793          	li	a5,255
     bce:	0ee7f163          	bgeu	a5,a4,cb0 <GPIO_Init+0x222>
E:\GITKraken\Dual-core_Communication_Demo\Dual-core_Communication_Demo\MASTER\obj/../Libraries/wch_libraries/Peripheral/ch32v10x_gpio.c:133
  {
    tmpreg = GPIOx->CFGHR;
     bd2:	fcc42783          	lw	a5,-52(s0)
     bd6:	43dc                	lw	a5,4(a5)
     bd8:	fef42223          	sw	a5,-28(s0)
E:\GITKraken\Dual-core_Communication_Demo\Dual-core_Communication_Demo\MASTER\obj/../Libraries/wch_libraries/Peripheral/ch32v10x_gpio.c:135
		
    for (pinpos = 0x00; pinpos < 0x08; pinpos++)
     bdc:	fe042423          	sw	zero,-24(s0)
     be0:	a875                	j	c9c <GPIO_Init+0x20e>
E:\GITKraken\Dual-core_Communication_Demo\Dual-core_Communication_Demo\MASTER\obj/../Libraries/wch_libraries/Peripheral/ch32v10x_gpio.c:137
    {
      pos = (((uint32_t)0x01) << (pinpos + 0x08));
     be2:	fe842783          	lw	a5,-24(s0)
     be6:	07a1                	addi	a5,a5,8
     be8:	4705                	li	a4,1
     bea:	00f717b3          	sll	a5,a4,a5
     bee:	fcf42e23          	sw	a5,-36(s0)
E:\GITKraken\Dual-core_Communication_Demo\Dual-core_Communication_Demo\MASTER\obj/../Libraries/wch_libraries/Peripheral/ch32v10x_gpio.c:138
      currentpin = ((GPIO_InitStruct->GPIO_Pin) & pos);
     bf2:	fc842783          	lw	a5,-56(s0)
     bf6:	0007d783          	lhu	a5,0(a5)
     bfa:	873e                	mv	a4,a5
     bfc:	fdc42783          	lw	a5,-36(s0)
     c00:	8ff9                	and	a5,a5,a4
     c02:	fef42023          	sw	a5,-32(s0)
E:\GITKraken\Dual-core_Communication_Demo\Dual-core_Communication_Demo\MASTER\obj/../Libraries/wch_libraries/Peripheral/ch32v10x_gpio.c:140
			
      if (currentpin == pos)
     c06:	fe042703          	lw	a4,-32(s0)
     c0a:	fdc42783          	lw	a5,-36(s0)
     c0e:	08f71263          	bne	a4,a5,c92 <GPIO_Init+0x204>
E:\GITKraken\Dual-core_Communication_Demo\Dual-core_Communication_Demo\MASTER\obj/../Libraries/wch_libraries/Peripheral/ch32v10x_gpio.c:142
      {
        pos = pinpos << 2;
     c12:	fe842783          	lw	a5,-24(s0)
     c16:	078a                	slli	a5,a5,0x2
     c18:	fcf42e23          	sw	a5,-36(s0)
E:\GITKraken\Dual-core_Communication_Demo\Dual-core_Communication_Demo\MASTER\obj/../Libraries/wch_libraries/Peripheral/ch32v10x_gpio.c:143
        pinmask = ((uint32_t)0x0F) << pos;
     c1c:	fdc42783          	lw	a5,-36(s0)
     c20:	473d                	li	a4,15
     c22:	00f717b3          	sll	a5,a4,a5
     c26:	fcf42c23          	sw	a5,-40(s0)
E:\GITKraken\Dual-core_Communication_Demo\Dual-core_Communication_Demo\MASTER\obj/../Libraries/wch_libraries/Peripheral/ch32v10x_gpio.c:144
        tmpreg &= ~pinmask;
     c2a:	fd842783          	lw	a5,-40(s0)
     c2e:	fff7c793          	not	a5,a5
     c32:	fe442703          	lw	a4,-28(s0)
     c36:	8ff9                	and	a5,a5,a4
     c38:	fef42223          	sw	a5,-28(s0)
E:\GITKraken\Dual-core_Communication_Demo\Dual-core_Communication_Demo\MASTER\obj/../Libraries/wch_libraries/Peripheral/ch32v10x_gpio.c:145
        tmpreg |= (currentmode << pos);
     c3c:	fdc42783          	lw	a5,-36(s0)
     c40:	fec42703          	lw	a4,-20(s0)
     c44:	00f717b3          	sll	a5,a4,a5
     c48:	fe442703          	lw	a4,-28(s0)
     c4c:	8fd9                	or	a5,a5,a4
     c4e:	fef42223          	sw	a5,-28(s0)
E:\GITKraken\Dual-core_Communication_Demo\Dual-core_Communication_Demo\MASTER\obj/../Libraries/wch_libraries/Peripheral/ch32v10x_gpio.c:147

        if (GPIO_InitStruct->GPIO_Mode == GPIO_Mode_IPD)
     c52:	fc842783          	lw	a5,-56(s0)
     c56:	4798                	lw	a4,8(a5)
     c58:	02800793          	li	a5,40
     c5c:	00f71b63          	bne	a4,a5,c72 <GPIO_Init+0x1e4>
E:\GITKraken\Dual-core_Communication_Demo\Dual-core_Communication_Demo\MASTER\obj/../Libraries/wch_libraries/Peripheral/ch32v10x_gpio.c:149
        {
          GPIOx->BCR = (((uint32_t)0x01) << (pinpos + 0x08));
     c60:	fe842783          	lw	a5,-24(s0)
     c64:	07a1                	addi	a5,a5,8
     c66:	4705                	li	a4,1
     c68:	00f71733          	sll	a4,a4,a5
     c6c:	fcc42783          	lw	a5,-52(s0)
     c70:	cbd8                	sw	a4,20(a5)
E:\GITKraken\Dual-core_Communication_Demo\Dual-core_Communication_Demo\MASTER\obj/../Libraries/wch_libraries/Peripheral/ch32v10x_gpio.c:152
        }

        if (GPIO_InitStruct->GPIO_Mode == GPIO_Mode_IPU)
     c72:	fc842783          	lw	a5,-56(s0)
     c76:	4798                	lw	a4,8(a5)
     c78:	04800793          	li	a5,72
     c7c:	00f71b63          	bne	a4,a5,c92 <GPIO_Init+0x204>
E:\GITKraken\Dual-core_Communication_Demo\Dual-core_Communication_Demo\MASTER\obj/../Libraries/wch_libraries/Peripheral/ch32v10x_gpio.c:154
        {
          GPIOx->BSHR = (((uint32_t)0x01) << (pinpos + 0x08));
     c80:	fe842783          	lw	a5,-24(s0)
     c84:	07a1                	addi	a5,a5,8
     c86:	4705                	li	a4,1
     c88:	00f71733          	sll	a4,a4,a5
     c8c:	fcc42783          	lw	a5,-52(s0)
     c90:	cb98                	sw	a4,16(a5)
E:\GITKraken\Dual-core_Communication_Demo\Dual-core_Communication_Demo\MASTER\obj/../Libraries/wch_libraries/Peripheral/ch32v10x_gpio.c:135 (discriminator 2)
    for (pinpos = 0x00; pinpos < 0x08; pinpos++)
     c92:	fe842783          	lw	a5,-24(s0)
     c96:	0785                	addi	a5,a5,1
     c98:	fef42423          	sw	a5,-24(s0)
E:\GITKraken\Dual-core_Communication_Demo\Dual-core_Communication_Demo\MASTER\obj/../Libraries/wch_libraries/Peripheral/ch32v10x_gpio.c:135 (discriminator 1)
     c9c:	fe842703          	lw	a4,-24(s0)
     ca0:	479d                	li	a5,7
     ca2:	f4e7f0e3          	bgeu	a5,a4,be2 <GPIO_Init+0x154>
E:\GITKraken\Dual-core_Communication_Demo\Dual-core_Communication_Demo\MASTER\obj/../Libraries/wch_libraries/Peripheral/ch32v10x_gpio.c:158
        }
      }
    }
    GPIOx->CFGHR = tmpreg;
     ca6:	fcc42783          	lw	a5,-52(s0)
     caa:	fe442703          	lw	a4,-28(s0)
     cae:	c3d8                	sw	a4,4(a5)
E:\GITKraken\Dual-core_Communication_Demo\Dual-core_Communication_Demo\MASTER\obj/../Libraries/wch_libraries/Peripheral/ch32v10x_gpio.c:160
  }
}
     cb0:	0001                	nop
     cb2:	5472                	lw	s0,60(sp)
     cb4:	6121                	addi	sp,sp,64
     cb6:	8082                	ret

00000cb8 <GPIO_WriteBit>:
GPIO_WriteBit():
E:\GITKraken\Dual-core_Communication_Demo\Dual-core_Communication_Demo\MASTER\obj/../Libraries/wch_libraries/Peripheral/ch32v10x_gpio.c:282
*                    Bit_SetL: to clear the port pin.
*                    Bit_SetH: to set the port pin.                  
* Return         : None
*******************************************************************************/
void GPIO_WriteBit(GPIO_TypeDef* GPIOx, uint16_t GPIO_Pin, BitAction BitVal)
{
     cb8:	1101                	addi	sp,sp,-32
     cba:	ce22                	sw	s0,28(sp)
     cbc:	1000                	addi	s0,sp,32
     cbe:	fea42623          	sw	a0,-20(s0)
     cc2:	87ae                	mv	a5,a1
     cc4:	fec42223          	sw	a2,-28(s0)
     cc8:	fef41523          	sh	a5,-22(s0)
E:\GITKraken\Dual-core_Communication_Demo\Dual-core_Communication_Demo\MASTER\obj/../Libraries/wch_libraries/Peripheral/ch32v10x_gpio.c:283
  if (BitVal != Bit_RESET)
     ccc:	fe442783          	lw	a5,-28(s0)
     cd0:	c799                	beqz	a5,cde <GPIO_WriteBit+0x26>
E:\GITKraken\Dual-core_Communication_Demo\Dual-core_Communication_Demo\MASTER\obj/../Libraries/wch_libraries/Peripheral/ch32v10x_gpio.c:285
  {
    GPIOx->BSHR = GPIO_Pin;
     cd2:	fea45703          	lhu	a4,-22(s0)
     cd6:	fec42783          	lw	a5,-20(s0)
     cda:	cb98                	sw	a4,16(a5)
E:\GITKraken\Dual-core_Communication_Demo\Dual-core_Communication_Demo\MASTER\obj/../Libraries/wch_libraries/Peripheral/ch32v10x_gpio.c:291
  }
  else
  {
    GPIOx->BCR = GPIO_Pin;
  }
}
     cdc:	a031                	j	ce8 <GPIO_WriteBit+0x30>
E:\GITKraken\Dual-core_Communication_Demo\Dual-core_Communication_Demo\MASTER\obj/../Libraries/wch_libraries/Peripheral/ch32v10x_gpio.c:289
    GPIOx->BCR = GPIO_Pin;
     cde:	fea45703          	lhu	a4,-22(s0)
     ce2:	fec42783          	lw	a5,-20(s0)
     ce6:	cbd8                	sw	a4,20(a5)
E:\GITKraken\Dual-core_Communication_Demo\Dual-core_Communication_Demo\MASTER\obj/../Libraries/wch_libraries/Peripheral/ch32v10x_gpio.c:291
}
     ce8:	0001                	nop
     cea:	4472                	lw	s0,28(sp)
     cec:	6105                	addi	sp,sp,32
     cee:	8082                	ret

00000cf0 <GPIO_PinRemapConfig>:
GPIO_PinRemapConfig():
E:\GITKraken\Dual-core_Communication_Demo\Dual-core_Communication_Demo\MASTER\obj/../Libraries/wch_libraries/Peripheral/ch32v10x_gpio.c:402
*      only for High density Value line devices)     
*                  NewState: ENABLE or DISABLE.             
* Return         : None
*******************************************************************************/
void GPIO_PinRemapConfig(uint32_t GPIO_Remap, FunctionalState NewState)
{
     cf0:	7179                	addi	sp,sp,-48
     cf2:	d622                	sw	s0,44(sp)
     cf4:	1800                	addi	s0,sp,48
     cf6:	fca42e23          	sw	a0,-36(s0)
     cfa:	fcb42c23          	sw	a1,-40(s0)
E:\GITKraken\Dual-core_Communication_Demo\Dual-core_Communication_Demo\MASTER\obj/../Libraries/wch_libraries/Peripheral/ch32v10x_gpio.c:403
  uint32_t tmp = 0x00, tmp1 = 0x00, tmpreg = 0x00, tmpmask = 0x00;
     cfe:	fe042423          	sw	zero,-24(s0)
     d02:	fe042223          	sw	zero,-28(s0)
     d06:	fe042623          	sw	zero,-20(s0)
     d0a:	fe042023          	sw	zero,-32(s0)
E:\GITKraken\Dual-core_Communication_Demo\Dual-core_Communication_Demo\MASTER\obj/../Libraries/wch_libraries/Peripheral/ch32v10x_gpio.c:405

  if((GPIO_Remap & 0x80000000) == 0x80000000)
     d0e:	fdc42783          	lw	a5,-36(s0)
     d12:	0007d863          	bgez	a5,d22 <GPIO_PinRemapConfig+0x32>
E:\GITKraken\Dual-core_Communication_Demo\Dual-core_Communication_Demo\MASTER\obj/../Libraries/wch_libraries/Peripheral/ch32v10x_gpio.c:407
  {
    tmpreg = AFIO->PCFR2;
     d16:	400107b7          	lui	a5,0x40010
     d1a:	4fdc                	lw	a5,28(a5)
     d1c:	fef42623          	sw	a5,-20(s0)
     d20:	a031                	j	d2c <GPIO_PinRemapConfig+0x3c>
E:\GITKraken\Dual-core_Communication_Demo\Dual-core_Communication_Demo\MASTER\obj/../Libraries/wch_libraries/Peripheral/ch32v10x_gpio.c:411
  }
  else
  {
    tmpreg = AFIO->PCFR1;
     d22:	400107b7          	lui	a5,0x40010
     d26:	43dc                	lw	a5,4(a5)
     d28:	fef42623          	sw	a5,-20(s0)
E:\GITKraken\Dual-core_Communication_Demo\Dual-core_Communication_Demo\MASTER\obj/../Libraries/wch_libraries/Peripheral/ch32v10x_gpio.c:414
  }

  tmpmask = (GPIO_Remap & DBGAFR_POSITION_MASK) >> 0x10;
     d2c:	fdc42783          	lw	a5,-36(s0)
     d30:	83c1                	srli	a5,a5,0x10
     d32:	8bbd                	andi	a5,a5,15
     d34:	fef42023          	sw	a5,-32(s0)
E:\GITKraken\Dual-core_Communication_Demo\Dual-core_Communication_Demo\MASTER\obj/../Libraries/wch_libraries/Peripheral/ch32v10x_gpio.c:415
  tmp = GPIO_Remap & LSB_MASK;
     d38:	fdc42703          	lw	a4,-36(s0)
     d3c:	67c1                	lui	a5,0x10
     d3e:	17fd                	addi	a5,a5,-1
     d40:	8ff9                	and	a5,a5,a4
     d42:	fef42423          	sw	a5,-24(s0)
E:\GITKraken\Dual-core_Communication_Demo\Dual-core_Communication_Demo\MASTER\obj/../Libraries/wch_libraries/Peripheral/ch32v10x_gpio.c:417

  if ((GPIO_Remap & (DBGAFR_LOCATION_MASK | DBGAFR_NUMBITS_MASK)) == (DBGAFR_LOCATION_MASK | DBGAFR_NUMBITS_MASK))
     d46:	fdc42703          	lw	a4,-36(s0)
     d4a:	003007b7          	lui	a5,0x300
     d4e:	8f7d                	and	a4,a4,a5
     d50:	003007b7          	lui	a5,0x300
     d54:	02f71563          	bne	a4,a5,d7e <GPIO_PinRemapConfig+0x8e>
E:\GITKraken\Dual-core_Communication_Demo\Dual-core_Communication_Demo\MASTER\obj/../Libraries/wch_libraries/Peripheral/ch32v10x_gpio.c:419
  {
    tmpreg &= DBGAFR_SWJCFG_MASK;
     d58:	fec42703          	lw	a4,-20(s0)
     d5c:	f10007b7          	lui	a5,0xf1000
     d60:	17fd                	addi	a5,a5,-1
     d62:	8ff9                	and	a5,a5,a4
     d64:	fef42623          	sw	a5,-20(s0)
E:\GITKraken\Dual-core_Communication_Demo\Dual-core_Communication_Demo\MASTER\obj/../Libraries/wch_libraries/Peripheral/ch32v10x_gpio.c:420
    AFIO->PCFR1 &= DBGAFR_SWJCFG_MASK;
     d68:	400107b7          	lui	a5,0x40010
     d6c:	43d4                	lw	a3,4(a5)
     d6e:	400107b7          	lui	a5,0x40010
     d72:	f1000737          	lui	a4,0xf1000
     d76:	177d                	addi	a4,a4,-1
     d78:	8f75                	and	a4,a4,a3
     d7a:	c3d8                	sw	a4,4(a5)
     d7c:	a0ad                	j	de6 <GPIO_PinRemapConfig+0xf6>
E:\GITKraken\Dual-core_Communication_Demo\Dual-core_Communication_Demo\MASTER\obj/../Libraries/wch_libraries/Peripheral/ch32v10x_gpio.c:422
  }
  else if ((GPIO_Remap & DBGAFR_NUMBITS_MASK) == DBGAFR_NUMBITS_MASK)
     d7e:	fdc42703          	lw	a4,-36(s0)
     d82:	001007b7          	lui	a5,0x100
     d86:	8ff9                	and	a5,a5,a4
     d88:	cb8d                	beqz	a5,dba <GPIO_PinRemapConfig+0xca>
E:\GITKraken\Dual-core_Communication_Demo\Dual-core_Communication_Demo\MASTER\obj/../Libraries/wch_libraries/Peripheral/ch32v10x_gpio.c:424
  {
    tmp1 = ((uint32_t)0x03) << tmpmask;
     d8a:	fe042783          	lw	a5,-32(s0)
     d8e:	470d                	li	a4,3
     d90:	00f717b3          	sll	a5,a4,a5
     d94:	fef42223          	sw	a5,-28(s0)
E:\GITKraken\Dual-core_Communication_Demo\Dual-core_Communication_Demo\MASTER\obj/../Libraries/wch_libraries/Peripheral/ch32v10x_gpio.c:425
    tmpreg &= ~tmp1;
     d98:	fe442783          	lw	a5,-28(s0)
     d9c:	fff7c793          	not	a5,a5
     da0:	fec42703          	lw	a4,-20(s0)
     da4:	8ff9                	and	a5,a5,a4
     da6:	fef42623          	sw	a5,-20(s0)
E:\GITKraken\Dual-core_Communication_Demo\Dual-core_Communication_Demo\MASTER\obj/../Libraries/wch_libraries/Peripheral/ch32v10x_gpio.c:426
    tmpreg |= ~DBGAFR_SWJCFG_MASK;
     daa:	fec42703          	lw	a4,-20(s0)
     dae:	0f0007b7          	lui	a5,0xf000
     db2:	8fd9                	or	a5,a5,a4
     db4:	fef42623          	sw	a5,-20(s0)
     db8:	a03d                	j	de6 <GPIO_PinRemapConfig+0xf6>
E:\GITKraken\Dual-core_Communication_Demo\Dual-core_Communication_Demo\MASTER\obj/../Libraries/wch_libraries/Peripheral/ch32v10x_gpio.c:430
  }
  else
  {
    tmpreg &= ~(tmp << ((GPIO_Remap >> 0x15)*0x10));
     dba:	fdc42783          	lw	a5,-36(s0)
     dbe:	83d5                	srli	a5,a5,0x15
     dc0:	0792                	slli	a5,a5,0x4
     dc2:	fe842703          	lw	a4,-24(s0)
     dc6:	00f717b3          	sll	a5,a4,a5
     dca:	fff7c793          	not	a5,a5
     dce:	fec42703          	lw	a4,-20(s0)
     dd2:	8ff9                	and	a5,a5,a4
     dd4:	fef42623          	sw	a5,-20(s0)
E:\GITKraken\Dual-core_Communication_Demo\Dual-core_Communication_Demo\MASTER\obj/../Libraries/wch_libraries/Peripheral/ch32v10x_gpio.c:431
    tmpreg |= ~DBGAFR_SWJCFG_MASK;
     dd8:	fec42703          	lw	a4,-20(s0)
     ddc:	0f0007b7          	lui	a5,0xf000
     de0:	8fd9                	or	a5,a5,a4
     de2:	fef42623          	sw	a5,-20(s0)
E:\GITKraken\Dual-core_Communication_Demo\Dual-core_Communication_Demo\MASTER\obj/../Libraries/wch_libraries/Peripheral/ch32v10x_gpio.c:434
  }

  if (NewState != DISABLE)
     de6:	fd842783          	lw	a5,-40(s0)
     dea:	cf91                	beqz	a5,e06 <GPIO_PinRemapConfig+0x116>
E:\GITKraken\Dual-core_Communication_Demo\Dual-core_Communication_Demo\MASTER\obj/../Libraries/wch_libraries/Peripheral/ch32v10x_gpio.c:436
  {
    tmpreg |= (tmp << ((GPIO_Remap >> 0x15)*0x10));
     dec:	fdc42783          	lw	a5,-36(s0)
     df0:	83d5                	srli	a5,a5,0x15
     df2:	0792                	slli	a5,a5,0x4
     df4:	fe842703          	lw	a4,-24(s0)
     df8:	00f717b3          	sll	a5,a4,a5
     dfc:	fec42703          	lw	a4,-20(s0)
     e00:	8fd9                	or	a5,a5,a4
     e02:	fef42623          	sw	a5,-20(s0)
E:\GITKraken\Dual-core_Communication_Demo\Dual-core_Communication_Demo\MASTER\obj/../Libraries/wch_libraries/Peripheral/ch32v10x_gpio.c:439
  }

  if((GPIO_Remap & 0x80000000) == 0x80000000)
     e06:	fdc42783          	lw	a5,-36(s0)
     e0a:	0007d863          	bgez	a5,e1a <GPIO_PinRemapConfig+0x12a>
E:\GITKraken\Dual-core_Communication_Demo\Dual-core_Communication_Demo\MASTER\obj/../Libraries/wch_libraries/Peripheral/ch32v10x_gpio.c:441
  {
    AFIO->PCFR2 = tmpreg;
     e0e:	400107b7          	lui	a5,0x40010
     e12:	fec42703          	lw	a4,-20(s0)
     e16:	cfd8                	sw	a4,28(a5)
E:\GITKraken\Dual-core_Communication_Demo\Dual-core_Communication_Demo\MASTER\obj/../Libraries/wch_libraries/Peripheral/ch32v10x_gpio.c:447
  }
  else
  {
    AFIO->PCFR1 = tmpreg;
  }  
}
     e18:	a031                	j	e24 <GPIO_PinRemapConfig+0x134>
E:\GITKraken\Dual-core_Communication_Demo\Dual-core_Communication_Demo\MASTER\obj/../Libraries/wch_libraries/Peripheral/ch32v10x_gpio.c:445
    AFIO->PCFR1 = tmpreg;
     e1a:	400107b7          	lui	a5,0x40010
     e1e:	fec42703          	lw	a4,-20(s0)
     e22:	c3d8                	sw	a4,4(a5)
E:\GITKraken\Dual-core_Communication_Demo\Dual-core_Communication_Demo\MASTER\obj/../Libraries/wch_libraries/Peripheral/ch32v10x_gpio.c:447
}
     e24:	0001                	nop
     e26:	5432                	lw	s0,44(sp)
     e28:	6145                	addi	sp,sp,48
     e2a:	8082                	ret

00000e2c <GPIO_EXTILineConfig>:
GPIO_EXTILineConfig():
E:\GITKraken\Dual-core_Communication_Demo\Dual-core_Communication_Demo\MASTER\obj/../Libraries/wch_libraries/Peripheral/ch32v10x_gpio.c:459
*                  GPIO_PinSource: specifies the EXTI line to be configured.
*                    This parameter can be GPIO_PinSourcex where x can be (0..15).
* Return         : None
*******************************************************************************/
void GPIO_EXTILineConfig(uint8_t GPIO_PortSource, uint8_t GPIO_PinSource)
{
     e2c:	7179                	addi	sp,sp,-48
     e2e:	d622                	sw	s0,44(sp)
     e30:	1800                	addi	s0,sp,48
     e32:	87aa                	mv	a5,a0
     e34:	872e                	mv	a4,a1
     e36:	fcf40fa3          	sb	a5,-33(s0)
     e3a:	87ba                	mv	a5,a4
     e3c:	fcf40f23          	sb	a5,-34(s0)
E:\GITKraken\Dual-core_Communication_Demo\Dual-core_Communication_Demo\MASTER\obj/../Libraries/wch_libraries/Peripheral/ch32v10x_gpio.c:460
  uint32_t tmp = 0x00;
     e40:	fe042623          	sw	zero,-20(s0)
E:\GITKraken\Dual-core_Communication_Demo\Dual-core_Communication_Demo\MASTER\obj/../Libraries/wch_libraries/Peripheral/ch32v10x_gpio.c:462

  tmp = ((uint32_t)0x0F) << (0x04 * (GPIO_PinSource & (uint8_t)0x03));
     e44:	fde44783          	lbu	a5,-34(s0)
     e48:	8b8d                	andi	a5,a5,3
     e4a:	078a                	slli	a5,a5,0x2
     e4c:	473d                	li	a4,15
     e4e:	00f717b3          	sll	a5,a4,a5
     e52:	fef42623          	sw	a5,-20(s0)
E:\GITKraken\Dual-core_Communication_Demo\Dual-core_Communication_Demo\MASTER\obj/../Libraries/wch_libraries/Peripheral/ch32v10x_gpio.c:463
  AFIO->EXTICR[GPIO_PinSource >> 0x02] &= ~tmp;
     e56:	40010737          	lui	a4,0x40010
     e5a:	fde44783          	lbu	a5,-34(s0)
     e5e:	8389                	srli	a5,a5,0x2
     e60:	0ff7f793          	andi	a5,a5,255
     e64:	078a                	slli	a5,a5,0x2
     e66:	97ba                	add	a5,a5,a4
     e68:	4798                	lw	a4,8(a5)
     e6a:	fec42783          	lw	a5,-20(s0)
     e6e:	fff7c793          	not	a5,a5
     e72:	400106b7          	lui	a3,0x40010
     e76:	fde44603          	lbu	a2,-34(s0)
     e7a:	8209                	srli	a2,a2,0x2
     e7c:	0ff67613          	andi	a2,a2,255
     e80:	8f7d                	and	a4,a4,a5
     e82:	00261793          	slli	a5,a2,0x2
     e86:	97b6                	add	a5,a5,a3
     e88:	c798                	sw	a4,8(a5)
E:\GITKraken\Dual-core_Communication_Demo\Dual-core_Communication_Demo\MASTER\obj/../Libraries/wch_libraries/Peripheral/ch32v10x_gpio.c:464
  AFIO->EXTICR[GPIO_PinSource >> 0x02] |= (((uint32_t)GPIO_PortSource) << (0x04 * (GPIO_PinSource & (uint8_t)0x03)));
     e8a:	40010737          	lui	a4,0x40010
     e8e:	fde44783          	lbu	a5,-34(s0)
     e92:	8389                	srli	a5,a5,0x2
     e94:	0ff7f793          	andi	a5,a5,255
     e98:	078a                	slli	a5,a5,0x2
     e9a:	97ba                	add	a5,a5,a4
     e9c:	4798                	lw	a4,8(a5)
     e9e:	fdf44683          	lbu	a3,-33(s0)
     ea2:	fde44783          	lbu	a5,-34(s0)
     ea6:	8b8d                	andi	a5,a5,3
     ea8:	078a                	slli	a5,a5,0x2
     eaa:	00f697b3          	sll	a5,a3,a5
     eae:	400106b7          	lui	a3,0x40010
     eb2:	fde44603          	lbu	a2,-34(s0)
     eb6:	8209                	srli	a2,a2,0x2
     eb8:	0ff67613          	andi	a2,a2,255
     ebc:	8f5d                	or	a4,a4,a5
     ebe:	00261793          	slli	a5,a2,0x2
     ec2:	97b6                	add	a5,a5,a3
     ec4:	c798                	sw	a4,8(a5)
E:\GITKraken\Dual-core_Communication_Demo\Dual-core_Communication_Demo\MASTER\obj/../Libraries/wch_libraries/Peripheral/ch32v10x_gpio.c:465
}
     ec6:	0001                	nop
     ec8:	5432                	lw	s0,44(sp)
     eca:	6145                	addi	sp,sp,48
     ecc:	8082                	ret

00000ece <NVIC_EnableIRQ>:
NVIC_EnableIRQ():
E:\GITKraken\Dual-core_Communication_Demo\Dual-core_Communication_Demo\MASTER\obj/../Libraries/wch_libraries/Core/core_riscv.h:126
* Function Name  : NVIC_EnableIRQ
* Description    : Enable Interrupt
* Input          : IRQn: Interrupt Numbers
* Return         : None
*******************************************************************************/
RV_STATIC_INLINE void NVIC_EnableIRQ(IRQn_Type IRQn){
     ece:	1101                	addi	sp,sp,-32
     ed0:	ce22                	sw	s0,28(sp)
     ed2:	1000                	addi	s0,sp,32
     ed4:	fea42623          	sw	a0,-20(s0)
E:\GITKraken\Dual-core_Communication_Demo\Dual-core_Communication_Demo\MASTER\obj/../Libraries/wch_libraries/Core/core_riscv.h:127
  NVIC->IENR[((uint32_t)(IRQn) >> 5)] = (1 << ((uint32_t)(IRQn) & 0x1F));
     ed8:	fec42783          	lw	a5,-20(s0)
     edc:	8bfd                	andi	a5,a5,31
     ede:	4705                	li	a4,1
     ee0:	00f716b3          	sll	a3,a4,a5
     ee4:	e000e737          	lui	a4,0xe000e
     ee8:	fec42783          	lw	a5,-20(s0)
     eec:	8395                	srli	a5,a5,0x5
     eee:	04078793          	addi	a5,a5,64 # 40010040 <_eusrstack+0x2000b040>
     ef2:	078a                	slli	a5,a5,0x2
     ef4:	97ba                	add	a5,a5,a4
     ef6:	c394                	sw	a3,0(a5)
E:\GITKraken\Dual-core_Communication_Demo\Dual-core_Communication_Demo\MASTER\obj/../Libraries/wch_libraries/Core/core_riscv.h:128
}
     ef8:	0001                	nop
     efa:	4472                	lw	s0,28(sp)
     efc:	6105                	addi	sp,sp,32
     efe:	8082                	ret

00000f00 <NVIC_DisableIRQ>:
NVIC_DisableIRQ():
E:\GITKraken\Dual-core_Communication_Demo\Dual-core_Communication_Demo\MASTER\obj/../Libraries/wch_libraries/Core/core_riscv.h:137
* Description    : Disable Interrupt
* Input          : IRQn: Interrupt Numbers
* Return         : None
*******************************************************************************/
RV_STATIC_INLINE void NVIC_DisableIRQ(IRQn_Type IRQn)
{
     f00:	1101                	addi	sp,sp,-32
     f02:	ce22                	sw	s0,28(sp)
     f04:	1000                	addi	s0,sp,32
     f06:	fea42623          	sw	a0,-20(s0)
E:\GITKraken\Dual-core_Communication_Demo\Dual-core_Communication_Demo\MASTER\obj/../Libraries/wch_libraries/Core/core_riscv.h:138
  NVIC->IRER[((uint32_t)(IRQn) >> 5)] = (1 << ((uint32_t)(IRQn) & 0x1F));
     f0a:	fec42783          	lw	a5,-20(s0)
     f0e:	8bfd                	andi	a5,a5,31
     f10:	4705                	li	a4,1
     f12:	00f716b3          	sll	a3,a4,a5
     f16:	e000e737          	lui	a4,0xe000e
     f1a:	fec42783          	lw	a5,-20(s0)
     f1e:	8395                	srli	a5,a5,0x5
     f20:	06078793          	addi	a5,a5,96
     f24:	078a                	slli	a5,a5,0x2
     f26:	97ba                	add	a5,a5,a4
     f28:	c394                	sw	a3,0(a5)
E:\GITKraken\Dual-core_Communication_Demo\Dual-core_Communication_Demo\MASTER\obj/../Libraries/wch_libraries/Core/core_riscv.h:139
}
     f2a:	0001                	nop
     f2c:	4472                	lw	s0,28(sp)
     f2e:	6105                	addi	sp,sp,32
     f30:	8082                	ret

00000f32 <NVIC_SetPriority>:
NVIC_SetPriority():
E:\GITKraken\Dual-core_Communication_Demo\Dual-core_Communication_Demo\MASTER\obj/../Libraries/wch_libraries/Core/core_riscv.h:208
*                  priority: bit7:pre-emption priority
*                            bit6-bit4: subpriority
* Return         : None
*******************************************************************************/
RV_STATIC_INLINE void NVIC_SetPriority(IRQn_Type IRQn, uint8_t priority)
{
     f32:	1101                	addi	sp,sp,-32
     f34:	ce22                	sw	s0,28(sp)
     f36:	1000                	addi	s0,sp,32
     f38:	fea42623          	sw	a0,-20(s0)
     f3c:	87ae                	mv	a5,a1
     f3e:	fef405a3          	sb	a5,-21(s0)
E:\GITKraken\Dual-core_Communication_Demo\Dual-core_Communication_Demo\MASTER\obj/../Libraries/wch_libraries/Core/core_riscv.h:209
  NVIC->IPRIOR[(uint32_t)(IRQn)] = priority;
     f42:	e000e737          	lui	a4,0xe000e
     f46:	fec42783          	lw	a5,-20(s0)
     f4a:	97ba                	add	a5,a5,a4
     f4c:	feb44703          	lbu	a4,-21(s0)
     f50:	40e78023          	sb	a4,1024(a5)
E:\GITKraken\Dual-core_Communication_Demo\Dual-core_Communication_Demo\MASTER\obj/../Libraries/wch_libraries/Core/core_riscv.h:210
}
     f54:	0001                	nop
     f56:	4472                	lw	s0,28(sp)
     f58:	6105                	addi	sp,sp,32
     f5a:	8082                	ret

00000f5c <NVIC_Init>:
NVIC_Init():
E:\GITKraken\Dual-core_Communication_Demo\Dual-core_Communication_Demo\MASTER\obj/../Libraries/wch_libraries/Peripheral/ch32v10x_misc.c:44
* Input          : NVIC_InitStruct: pointer to a NVIC_InitTypeDef structure that contains the
*                                   configuration information for the specified NVIC peripheral.                 
* Return         : None
*******************************************************************************************/
void NVIC_Init(NVIC_InitTypeDef* NVIC_InitStruct)
{
     f5c:	1101                	addi	sp,sp,-32
     f5e:	ce06                	sw	ra,28(sp)
     f60:	cc22                	sw	s0,24(sp)
     f62:	1000                	addi	s0,sp,32
     f64:	fea42623          	sw	a0,-20(s0)
E:\GITKraken\Dual-core_Communication_Demo\Dual-core_Communication_Demo\MASTER\obj/../Libraries/wch_libraries/Peripheral/ch32v10x_misc.c:47
	//uint8_t tmppre = 0;

	if((PFIC->CFGR&(1<<1)) != 0)                    //中断嵌套标志位：1为关闭
     f68:	e000e7b7          	lui	a5,0xe000e
     f6c:	47bc                	lw	a5,72(a5)
     f6e:	8b89                	andi	a5,a5,2
     f70:	c38d                	beqz	a5,f92 <NVIC_Init+0x36>
E:\GITKraken\Dual-core_Communication_Demo\Dual-core_Communication_Demo\MASTER\obj/../Libraries/wch_libraries/Peripheral/ch32v10x_misc.c:49
	{
		NVIC_SetPriority( NVIC_InitStruct->NVIC_IRQChannel, NVIC_InitStruct->NVIC_IRQChannelSubPriority<<4);
     f72:	fec42783          	lw	a5,-20(s0)
     f76:	0007c783          	lbu	a5,0(a5) # e000e000 <_eusrstack+0xc0009000>
     f7a:	873e                	mv	a4,a5
     f7c:	fec42783          	lw	a5,-20(s0)
     f80:	0027c783          	lbu	a5,2(a5)
     f84:	0792                	slli	a5,a5,0x4
     f86:	0ff7f793          	andi	a5,a5,255
     f8a:	85be                	mv	a1,a5
     f8c:	853a                	mv	a0,a4
     f8e:	3755                	jal	f32 <NVIC_SetPriority>
     f90:	a095                	j	ff4 <NVIC_Init+0x98>
E:\GITKraken\Dual-core_Communication_Demo\Dual-core_Communication_Demo\MASTER\obj/../Libraries/wch_libraries/Peripheral/ch32v10x_misc.c:51
	}
	else if((PFIC->CFGR&(1<<1)) == 0)               //中断嵌套标志位：0为打开
     f92:	e000e7b7          	lui	a5,0xe000e
     f96:	47bc                	lw	a5,72(a5)
     f98:	8b89                	andi	a5,a5,2
     f9a:	efa9                	bnez	a5,ff4 <NVIC_Init+0x98>
E:\GITKraken\Dual-core_Communication_Demo\Dual-core_Communication_Demo\MASTER\obj/../Libraries/wch_libraries/Peripheral/ch32v10x_misc.c:53
	{
        if(NVIC_InitStruct->NVIC_IRQChannelPreemptionPriority == 1)
     f9c:	fec42783          	lw	a5,-20(s0)
     fa0:	0017c703          	lbu	a4,1(a5) # e000e001 <_eusrstack+0xc0009001>
     fa4:	4785                	li	a5,1
     fa6:	02f71863          	bne	a4,a5,fd6 <NVIC_Init+0x7a>
E:\GITKraken\Dual-core_Communication_Demo\Dual-core_Communication_Demo\MASTER\obj/../Libraries/wch_libraries/Peripheral/ch32v10x_misc.c:55
        {
            NVIC_SetPriority( NVIC_InitStruct->NVIC_IRQChannel, (1<<7)|(NVIC_InitStruct->NVIC_IRQChannelSubPriority<<4));
     faa:	fec42783          	lw	a5,-20(s0)
     fae:	0007c783          	lbu	a5,0(a5)
     fb2:	873e                	mv	a4,a5
     fb4:	fec42783          	lw	a5,-20(s0)
     fb8:	0027c783          	lbu	a5,2(a5)
     fbc:	0792                	slli	a5,a5,0x4
     fbe:	07e2                	slli	a5,a5,0x18
     fc0:	87e1                	srai	a5,a5,0x18
     fc2:	f807e793          	ori	a5,a5,-128
     fc6:	07e2                	slli	a5,a5,0x18
     fc8:	87e1                	srai	a5,a5,0x18
     fca:	0ff7f793          	andi	a5,a5,255
     fce:	85be                	mv	a1,a5
     fd0:	853a                	mv	a0,a4
     fd2:	3785                	jal	f32 <NVIC_SetPriority>
     fd4:	a005                	j	ff4 <NVIC_Init+0x98>
E:\GITKraken\Dual-core_Communication_Demo\Dual-core_Communication_Demo\MASTER\obj/../Libraries/wch_libraries/Peripheral/ch32v10x_misc.c:59
        }
        else
        {
            NVIC_SetPriority( NVIC_InitStruct->NVIC_IRQChannel, (0<<7)|(NVIC_InitStruct->NVIC_IRQChannelSubPriority<<4));
     fd6:	fec42783          	lw	a5,-20(s0)
     fda:	0007c783          	lbu	a5,0(a5)
     fde:	873e                	mv	a4,a5
     fe0:	fec42783          	lw	a5,-20(s0)
     fe4:	0027c783          	lbu	a5,2(a5)
     fe8:	0792                	slli	a5,a5,0x4
     fea:	0ff7f793          	andi	a5,a5,255
     fee:	85be                	mv	a1,a5
     ff0:	853a                	mv	a0,a4
     ff2:	3781                	jal	f32 <NVIC_SetPriority>
E:\GITKraken\Dual-core_Communication_Demo\Dual-core_Communication_Demo\MASTER\obj/../Libraries/wch_libraries/Peripheral/ch32v10x_misc.c:93
//	else if(NVIC_Priority_Group == NVIC_PriorityGroup_4)
//	{
//		NVIC_SetPriority( NVIC_InitStruct->NVIC_IRQChannel, NVIC_InitStruct->NVIC_IRQChannelPreemptionPriority<<4);
//	}

  if (NVIC_InitStruct->NVIC_IRQChannelCmd != DISABLE)
     ff4:	fec42783          	lw	a5,-20(s0)
     ff8:	43dc                	lw	a5,4(a5)
     ffa:	cb81                	beqz	a5,100a <NVIC_Init+0xae>
E:\GITKraken\Dual-core_Communication_Demo\Dual-core_Communication_Demo\MASTER\obj/../Libraries/wch_libraries/Peripheral/ch32v10x_misc.c:95
  {
  	NVIC_EnableIRQ(NVIC_InitStruct->NVIC_IRQChannel);
     ffc:	fec42783          	lw	a5,-20(s0)
    1000:	0007c783          	lbu	a5,0(a5)
    1004:	853e                	mv	a0,a5
    1006:	35e1                	jal	ece <NVIC_EnableIRQ>
E:\GITKraken\Dual-core_Communication_Demo\Dual-core_Communication_Demo\MASTER\obj/../Libraries/wch_libraries/Peripheral/ch32v10x_misc.c:101
  }
  else
  {
  	NVIC_DisableIRQ(NVIC_InitStruct->NVIC_IRQChannel);
  }
}
    1008:	a039                	j	1016 <NVIC_Init+0xba>
E:\GITKraken\Dual-core_Communication_Demo\Dual-core_Communication_Demo\MASTER\obj/../Libraries/wch_libraries/Peripheral/ch32v10x_misc.c:99
  	NVIC_DisableIRQ(NVIC_InitStruct->NVIC_IRQChannel);
    100a:	fec42783          	lw	a5,-20(s0)
    100e:	0007c783          	lbu	a5,0(a5)
    1012:	853e                	mv	a0,a5
    1014:	35f5                	jal	f00 <NVIC_DisableIRQ>
E:\GITKraken\Dual-core_Communication_Demo\Dual-core_Communication_Demo\MASTER\obj/../Libraries/wch_libraries/Peripheral/ch32v10x_misc.c:101
}
    1016:	0001                	nop
    1018:	40f2                	lw	ra,28(sp)
    101a:	4462                	lw	s0,24(sp)
    101c:	6105                	addi	sp,sp,32
    101e:	8082                	ret

00001020 <RCC_GetClocksFreq>:
RCC_GetClocksFreq():
E:\GITKraken\Dual-core_Communication_Demo\Dual-core_Communication_Demo\MASTER\obj/../Libraries/wch_libraries/Peripheral/ch32v10x_rcc.c:469
* Input          : The result of this function could be not correct when using
*      fractional value for HSE crystal.
* Return         : None
********************************************************************************/
void RCC_GetClocksFreq(RCC_ClocksTypeDef* RCC_Clocks)
{
    1020:	7179                	addi	sp,sp,-48
    1022:	d622                	sw	s0,44(sp)
    1024:	1800                	addi	s0,sp,48
    1026:	fca42e23          	sw	a0,-36(s0)
E:\GITKraken\Dual-core_Communication_Demo\Dual-core_Communication_Demo\MASTER\obj/../Libraries/wch_libraries/Peripheral/ch32v10x_rcc.c:470
  uint32_t tmp = 0, pllmull = 0, pllsource = 0, presc = 0;
    102a:	fe042623          	sw	zero,-20(s0)
    102e:	fe042423          	sw	zero,-24(s0)
    1032:	fe042223          	sw	zero,-28(s0)
    1036:	fe042023          	sw	zero,-32(s0)
E:\GITKraken\Dual-core_Communication_Demo\Dual-core_Communication_Demo\MASTER\obj/../Libraries/wch_libraries/Peripheral/ch32v10x_rcc.c:472
  
  tmp = RCC->CFGR0 & CFGR0_SWS_Mask;
    103a:	400217b7          	lui	a5,0x40021
    103e:	43dc                	lw	a5,4(a5)
    1040:	8bb1                	andi	a5,a5,12
    1042:	fef42623          	sw	a5,-20(s0)
    1046:	fec42703          	lw	a4,-20(s0)
    104a:	4791                	li	a5,4
    104c:	02f70263          	beq	a4,a5,1070 <RCC_GetClocksFreq+0x50>
    1050:	fec42703          	lw	a4,-20(s0)
    1054:	47a1                	li	a5,8
    1056:	02f70563          	beq	a4,a5,1080 <RCC_GetClocksFreq+0x60>
    105a:	fec42783          	lw	a5,-20(s0)
    105e:	e7c5                	bnez	a5,1106 <RCC_GetClocksFreq+0xe6>
E:\GITKraken\Dual-core_Communication_Demo\Dual-core_Communication_Demo\MASTER\obj/../Libraries/wch_libraries/Peripheral/ch32v10x_rcc.c:477
  
  switch (tmp)
  {
    case 0x00: 
      RCC_Clocks->SYSCLK_Frequency = HSI_VALUE;
    1060:	fdc42783          	lw	a5,-36(s0)
    1064:	007a1737          	lui	a4,0x7a1
    1068:	20070713          	addi	a4,a4,512 # 7a1200 <_data_lma+0x79ca1c>
    106c:	c398                	sw	a4,0(a5)
E:\GITKraken\Dual-core_Communication_Demo\Dual-core_Communication_Demo\MASTER\obj/../Libraries/wch_libraries/Peripheral/ch32v10x_rcc.c:478
      break;
    106e:	a065                	j	1116 <RCC_GetClocksFreq+0xf6>
E:\GITKraken\Dual-core_Communication_Demo\Dual-core_Communication_Demo\MASTER\obj/../Libraries/wch_libraries/Peripheral/ch32v10x_rcc.c:481
		
    case 0x04:
      RCC_Clocks->SYSCLK_Frequency = HSE_VALUE;
    1070:	fdc42783          	lw	a5,-36(s0)
    1074:	007a1737          	lui	a4,0x7a1
    1078:	20070713          	addi	a4,a4,512 # 7a1200 <_data_lma+0x79ca1c>
    107c:	c398                	sw	a4,0(a5)
E:\GITKraken\Dual-core_Communication_Demo\Dual-core_Communication_Demo\MASTER\obj/../Libraries/wch_libraries/Peripheral/ch32v10x_rcc.c:482
      break;
    107e:	a861                	j	1116 <RCC_GetClocksFreq+0xf6>
E:\GITKraken\Dual-core_Communication_Demo\Dual-core_Communication_Demo\MASTER\obj/../Libraries/wch_libraries/Peripheral/ch32v10x_rcc.c:485
		
    case 0x08:
      pllmull = RCC->CFGR0 & CFGR0_PLLMull_Mask;
    1080:	400217b7          	lui	a5,0x40021
    1084:	43d8                	lw	a4,4(a5)
    1086:	003c07b7          	lui	a5,0x3c0
    108a:	8ff9                	and	a5,a5,a4
    108c:	fef42423          	sw	a5,-24(s0)
E:\GITKraken\Dual-core_Communication_Demo\Dual-core_Communication_Demo\MASTER\obj/../Libraries/wch_libraries/Peripheral/ch32v10x_rcc.c:486
      pllsource = RCC->CFGR0 & CFGR0_PLLSRC_Mask;    
    1090:	400217b7          	lui	a5,0x40021
    1094:	43d8                	lw	a4,4(a5)
    1096:	67c1                	lui	a5,0x10
    1098:	8ff9                	and	a5,a5,a4
    109a:	fef42223          	sw	a5,-28(s0)
E:\GITKraken\Dual-core_Communication_Demo\Dual-core_Communication_Demo\MASTER\obj/../Libraries/wch_libraries/Peripheral/ch32v10x_rcc.c:487
      pllmull = ( pllmull >> 18) + 2;
    109e:	fe842783          	lw	a5,-24(s0)
    10a2:	83c9                	srli	a5,a5,0x12
    10a4:	0789                	addi	a5,a5,2
    10a6:	fef42423          	sw	a5,-24(s0)
E:\GITKraken\Dual-core_Communication_Demo\Dual-core_Communication_Demo\MASTER\obj/../Libraries/wch_libraries/Peripheral/ch32v10x_rcc.c:489
      
      if (pllsource == 0x00)
    10aa:	fe442783          	lw	a5,-28(s0)
    10ae:	ef89                	bnez	a5,10c8 <RCC_GetClocksFreq+0xa8>
E:\GITKraken\Dual-core_Communication_Demo\Dual-core_Communication_Demo\MASTER\obj/../Libraries/wch_libraries/Peripheral/ch32v10x_rcc.c:491
      {
        RCC_Clocks->SYSCLK_Frequency = (HSI_VALUE >> 1) * pllmull;
    10b0:	fe842703          	lw	a4,-24(s0)
    10b4:	003d17b7          	lui	a5,0x3d1
    10b8:	90078793          	addi	a5,a5,-1792 # 3d0900 <_data_lma+0x3cc11c>
    10bc:	02f70733          	mul	a4,a4,a5
    10c0:	fdc42783          	lw	a5,-36(s0)
    10c4:	c398                	sw	a4,0(a5)
E:\GITKraken\Dual-core_Communication_Demo\Dual-core_Communication_Demo\MASTER\obj/../Libraries/wch_libraries/Peripheral/ch32v10x_rcc.c:504
        else
        {
          RCC_Clocks->SYSCLK_Frequency = HSE_VALUE * pllmull;
        }
      } 
      break;
    10c6:	a881                	j	1116 <RCC_GetClocksFreq+0xf6>
E:\GITKraken\Dual-core_Communication_Demo\Dual-core_Communication_Demo\MASTER\obj/../Libraries/wch_libraries/Peripheral/ch32v10x_rcc.c:495
        if ((RCC->CFGR0 & CFGR0_PLLXTPRE_Mask) != (uint32_t)RESET)
    10c8:	400217b7          	lui	a5,0x40021
    10cc:	43d8                	lw	a4,4(a5)
    10ce:	000207b7          	lui	a5,0x20
    10d2:	8ff9                	and	a5,a5,a4
    10d4:	cf89                	beqz	a5,10ee <RCC_GetClocksFreq+0xce>
E:\GITKraken\Dual-core_Communication_Demo\Dual-core_Communication_Demo\MASTER\obj/../Libraries/wch_libraries/Peripheral/ch32v10x_rcc.c:497
          RCC_Clocks->SYSCLK_Frequency = (HSE_VALUE >> 1) * pllmull;
    10d6:	fe842703          	lw	a4,-24(s0)
    10da:	003d17b7          	lui	a5,0x3d1
    10de:	90078793          	addi	a5,a5,-1792 # 3d0900 <_data_lma+0x3cc11c>
    10e2:	02f70733          	mul	a4,a4,a5
    10e6:	fdc42783          	lw	a5,-36(s0)
    10ea:	c398                	sw	a4,0(a5)
E:\GITKraken\Dual-core_Communication_Demo\Dual-core_Communication_Demo\MASTER\obj/../Libraries/wch_libraries/Peripheral/ch32v10x_rcc.c:504
      break;
    10ec:	a02d                	j	1116 <RCC_GetClocksFreq+0xf6>
E:\GITKraken\Dual-core_Communication_Demo\Dual-core_Communication_Demo\MASTER\obj/../Libraries/wch_libraries/Peripheral/ch32v10x_rcc.c:501
          RCC_Clocks->SYSCLK_Frequency = HSE_VALUE * pllmull;
    10ee:	fe842703          	lw	a4,-24(s0)
    10f2:	007a17b7          	lui	a5,0x7a1
    10f6:	20078793          	addi	a5,a5,512 # 7a1200 <_data_lma+0x79ca1c>
    10fa:	02f70733          	mul	a4,a4,a5
    10fe:	fdc42783          	lw	a5,-36(s0)
    1102:	c398                	sw	a4,0(a5)
E:\GITKraken\Dual-core_Communication_Demo\Dual-core_Communication_Demo\MASTER\obj/../Libraries/wch_libraries/Peripheral/ch32v10x_rcc.c:504
      break;
    1104:	a809                	j	1116 <RCC_GetClocksFreq+0xf6>
E:\GITKraken\Dual-core_Communication_Demo\Dual-core_Communication_Demo\MASTER\obj/../Libraries/wch_libraries/Peripheral/ch32v10x_rcc.c:507

    default:
      RCC_Clocks->SYSCLK_Frequency = HSI_VALUE;
    1106:	fdc42783          	lw	a5,-36(s0)
    110a:	007a1737          	lui	a4,0x7a1
    110e:	20070713          	addi	a4,a4,512 # 7a1200 <_data_lma+0x79ca1c>
    1112:	c398                	sw	a4,0(a5)
E:\GITKraken\Dual-core_Communication_Demo\Dual-core_Communication_Demo\MASTER\obj/../Libraries/wch_libraries/Peripheral/ch32v10x_rcc.c:508
      break;
    1114:	0001                	nop
E:\GITKraken\Dual-core_Communication_Demo\Dual-core_Communication_Demo\MASTER\obj/../Libraries/wch_libraries/Peripheral/ch32v10x_rcc.c:511
  }

  tmp = RCC->CFGR0 & CFGR0_HPRE_Set_Mask;
    1116:	400217b7          	lui	a5,0x40021
    111a:	43dc                	lw	a5,4(a5)
    111c:	0f07f793          	andi	a5,a5,240
    1120:	fef42623          	sw	a5,-20(s0)
E:\GITKraken\Dual-core_Communication_Demo\Dual-core_Communication_Demo\MASTER\obj/../Libraries/wch_libraries/Peripheral/ch32v10x_rcc.c:512
  tmp = tmp >> 4;
    1124:	fec42783          	lw	a5,-20(s0)
    1128:	8391                	srli	a5,a5,0x4
    112a:	fef42623          	sw	a5,-20(s0)
E:\GITKraken\Dual-core_Communication_Demo\Dual-core_Communication_Demo\MASTER\obj/../Libraries/wch_libraries/Peripheral/ch32v10x_rcc.c:513
  presc = APBAHBPrescTable[tmp];
    112e:	200007b7          	lui	a5,0x20000
    1132:	00078713          	mv	a4,a5
    1136:	fec42783          	lw	a5,-20(s0)
    113a:	97ba                	add	a5,a5,a4
    113c:	0007c783          	lbu	a5,0(a5) # 20000000 <_data_vma>
    1140:	0ff7f793          	andi	a5,a5,255
    1144:	fef42023          	sw	a5,-32(s0)
E:\GITKraken\Dual-core_Communication_Demo\Dual-core_Communication_Demo\MASTER\obj/../Libraries/wch_libraries/Peripheral/ch32v10x_rcc.c:514
  RCC_Clocks->HCLK_Frequency = RCC_Clocks->SYSCLK_Frequency >> presc;
    1148:	fdc42783          	lw	a5,-36(s0)
    114c:	4398                	lw	a4,0(a5)
    114e:	fe042783          	lw	a5,-32(s0)
    1152:	00f75733          	srl	a4,a4,a5
    1156:	fdc42783          	lw	a5,-36(s0)
    115a:	c3d8                	sw	a4,4(a5)
E:\GITKraken\Dual-core_Communication_Demo\Dual-core_Communication_Demo\MASTER\obj/../Libraries/wch_libraries/Peripheral/ch32v10x_rcc.c:515
  tmp = RCC->CFGR0 & CFGR0_PPRE1_Set_Mask;
    115c:	400217b7          	lui	a5,0x40021
    1160:	43dc                	lw	a5,4(a5)
    1162:	7007f793          	andi	a5,a5,1792
    1166:	fef42623          	sw	a5,-20(s0)
E:\GITKraken\Dual-core_Communication_Demo\Dual-core_Communication_Demo\MASTER\obj/../Libraries/wch_libraries/Peripheral/ch32v10x_rcc.c:516
  tmp = tmp >> 8;
    116a:	fec42783          	lw	a5,-20(s0)
    116e:	83a1                	srli	a5,a5,0x8
    1170:	fef42623          	sw	a5,-20(s0)
E:\GITKraken\Dual-core_Communication_Demo\Dual-core_Communication_Demo\MASTER\obj/../Libraries/wch_libraries/Peripheral/ch32v10x_rcc.c:517
  presc = APBAHBPrescTable[tmp];
    1174:	200007b7          	lui	a5,0x20000
    1178:	00078713          	mv	a4,a5
    117c:	fec42783          	lw	a5,-20(s0)
    1180:	97ba                	add	a5,a5,a4
    1182:	0007c783          	lbu	a5,0(a5) # 20000000 <_data_vma>
    1186:	0ff7f793          	andi	a5,a5,255
    118a:	fef42023          	sw	a5,-32(s0)
E:\GITKraken\Dual-core_Communication_Demo\Dual-core_Communication_Demo\MASTER\obj/../Libraries/wch_libraries/Peripheral/ch32v10x_rcc.c:518
  RCC_Clocks->PCLK1_Frequency = RCC_Clocks->HCLK_Frequency >> presc;
    118e:	fdc42783          	lw	a5,-36(s0)
    1192:	43d8                	lw	a4,4(a5)
    1194:	fe042783          	lw	a5,-32(s0)
    1198:	00f75733          	srl	a4,a4,a5
    119c:	fdc42783          	lw	a5,-36(s0)
    11a0:	c798                	sw	a4,8(a5)
E:\GITKraken\Dual-core_Communication_Demo\Dual-core_Communication_Demo\MASTER\obj/../Libraries/wch_libraries/Peripheral/ch32v10x_rcc.c:519
  tmp = RCC->CFGR0 & CFGR0_PPRE2_Set_Mask;
    11a2:	400217b7          	lui	a5,0x40021
    11a6:	43d8                	lw	a4,4(a5)
    11a8:	6791                	lui	a5,0x4
    11aa:	80078793          	addi	a5,a5,-2048 # 3800 <__sflush_r+0x86>
    11ae:	8ff9                	and	a5,a5,a4
    11b0:	fef42623          	sw	a5,-20(s0)
E:\GITKraken\Dual-core_Communication_Demo\Dual-core_Communication_Demo\MASTER\obj/../Libraries/wch_libraries/Peripheral/ch32v10x_rcc.c:520
  tmp = tmp >> 11;
    11b4:	fec42783          	lw	a5,-20(s0)
    11b8:	83ad                	srli	a5,a5,0xb
    11ba:	fef42623          	sw	a5,-20(s0)
E:\GITKraken\Dual-core_Communication_Demo\Dual-core_Communication_Demo\MASTER\obj/../Libraries/wch_libraries/Peripheral/ch32v10x_rcc.c:521
  presc = APBAHBPrescTable[tmp];
    11be:	200007b7          	lui	a5,0x20000
    11c2:	00078713          	mv	a4,a5
    11c6:	fec42783          	lw	a5,-20(s0)
    11ca:	97ba                	add	a5,a5,a4
    11cc:	0007c783          	lbu	a5,0(a5) # 20000000 <_data_vma>
    11d0:	0ff7f793          	andi	a5,a5,255
    11d4:	fef42023          	sw	a5,-32(s0)
E:\GITKraken\Dual-core_Communication_Demo\Dual-core_Communication_Demo\MASTER\obj/../Libraries/wch_libraries/Peripheral/ch32v10x_rcc.c:522
  RCC_Clocks->PCLK2_Frequency = RCC_Clocks->HCLK_Frequency >> presc;
    11d8:	fdc42783          	lw	a5,-36(s0)
    11dc:	43d8                	lw	a4,4(a5)
    11de:	fe042783          	lw	a5,-32(s0)
    11e2:	00f75733          	srl	a4,a4,a5
    11e6:	fdc42783          	lw	a5,-36(s0)
    11ea:	c7d8                	sw	a4,12(a5)
E:\GITKraken\Dual-core_Communication_Demo\Dual-core_Communication_Demo\MASTER\obj/../Libraries/wch_libraries/Peripheral/ch32v10x_rcc.c:523
  tmp = RCC->CFGR0 & CFGR0_ADCPRE_Set_Mask;
    11ec:	400217b7          	lui	a5,0x40021
    11f0:	43d8                	lw	a4,4(a5)
    11f2:	67b1                	lui	a5,0xc
    11f4:	8ff9                	and	a5,a5,a4
    11f6:	fef42623          	sw	a5,-20(s0)
E:\GITKraken\Dual-core_Communication_Demo\Dual-core_Communication_Demo\MASTER\obj/../Libraries/wch_libraries/Peripheral/ch32v10x_rcc.c:524
  tmp = tmp >> 14;
    11fa:	fec42783          	lw	a5,-20(s0)
    11fe:	83b9                	srli	a5,a5,0xe
    1200:	fef42623          	sw	a5,-20(s0)
E:\GITKraken\Dual-core_Communication_Demo\Dual-core_Communication_Demo\MASTER\obj/../Libraries/wch_libraries/Peripheral/ch32v10x_rcc.c:525
  presc = ADCPrescTable[tmp];
    1204:	200007b7          	lui	a5,0x20000
    1208:	07078713          	addi	a4,a5,112 # 20000070 <ADCPrescTable>
    120c:	fec42783          	lw	a5,-20(s0)
    1210:	97ba                	add	a5,a5,a4
    1212:	0007c783          	lbu	a5,0(a5)
    1216:	0ff7f793          	andi	a5,a5,255
    121a:	fef42023          	sw	a5,-32(s0)
E:\GITKraken\Dual-core_Communication_Demo\Dual-core_Communication_Demo\MASTER\obj/../Libraries/wch_libraries/Peripheral/ch32v10x_rcc.c:526
  RCC_Clocks->ADCCLK_Frequency = RCC_Clocks->PCLK2_Frequency / presc;
    121e:	fdc42783          	lw	a5,-36(s0)
    1222:	47d8                	lw	a4,12(a5)
    1224:	fe042783          	lw	a5,-32(s0)
    1228:	02f75733          	divu	a4,a4,a5
    122c:	fdc42783          	lw	a5,-36(s0)
    1230:	cb98                	sw	a4,16(a5)
E:\GITKraken\Dual-core_Communication_Demo\Dual-core_Communication_Demo\MASTER\obj/../Libraries/wch_libraries/Peripheral/ch32v10x_rcc.c:527
}
    1232:	0001                	nop
    1234:	5432                	lw	s0,44(sp)
    1236:	6145                	addi	sp,sp,48
    1238:	8082                	ret

0000123a <RCC_APB2PeriphClockCmd>:
RCC_APB2PeriphClockCmd():
E:\GITKraken\Dual-core_Communication_Demo\Dual-core_Communication_Demo\MASTER\obj/../Libraries/wch_libraries/Peripheral/ch32v10x_rcc.c:570
*                    RCC_APB2Periph_USART1.
*                  NewState: ENABLE or DISABLE
* Return         : None
*******************************************************************************/	
void RCC_APB2PeriphClockCmd(uint32_t RCC_APB2Periph, FunctionalState NewState)
{
    123a:	1101                	addi	sp,sp,-32
    123c:	ce22                	sw	s0,28(sp)
    123e:	1000                	addi	s0,sp,32
    1240:	fea42623          	sw	a0,-20(s0)
    1244:	feb42423          	sw	a1,-24(s0)
E:\GITKraken\Dual-core_Communication_Demo\Dual-core_Communication_Demo\MASTER\obj/../Libraries/wch_libraries/Peripheral/ch32v10x_rcc.c:571
  if (NewState != DISABLE)
    1248:	fe842783          	lw	a5,-24(s0)
    124c:	cb99                	beqz	a5,1262 <RCC_APB2PeriphClockCmd+0x28>
E:\GITKraken\Dual-core_Communication_Demo\Dual-core_Communication_Demo\MASTER\obj/../Libraries/wch_libraries/Peripheral/ch32v10x_rcc.c:573
  {
    RCC->APB2PCENR |= RCC_APB2Periph;
    124e:	400217b7          	lui	a5,0x40021
    1252:	4f94                	lw	a3,24(a5)
    1254:	400217b7          	lui	a5,0x40021
    1258:	fec42703          	lw	a4,-20(s0)
    125c:	8f55                	or	a4,a4,a3
    125e:	cf98                	sw	a4,24(a5)
E:\GITKraken\Dual-core_Communication_Demo\Dual-core_Communication_Demo\MASTER\obj/../Libraries/wch_libraries/Peripheral/ch32v10x_rcc.c:579
  }
  else
  {
    RCC->APB2PCENR &= ~RCC_APB2Periph;
  }
}
    1260:	a821                	j	1278 <RCC_APB2PeriphClockCmd+0x3e>
E:\GITKraken\Dual-core_Communication_Demo\Dual-core_Communication_Demo\MASTER\obj/../Libraries/wch_libraries/Peripheral/ch32v10x_rcc.c:577
    RCC->APB2PCENR &= ~RCC_APB2Periph;
    1262:	400217b7          	lui	a5,0x40021
    1266:	4f94                	lw	a3,24(a5)
    1268:	fec42783          	lw	a5,-20(s0)
    126c:	fff7c713          	not	a4,a5
    1270:	400217b7          	lui	a5,0x40021
    1274:	8f75                	and	a4,a4,a3
    1276:	cf98                	sw	a4,24(a5)
E:\GITKraken\Dual-core_Communication_Demo\Dual-core_Communication_Demo\MASTER\obj/../Libraries/wch_libraries/Peripheral/ch32v10x_rcc.c:579
}
    1278:	0001                	nop
    127a:	4472                	lw	s0,28(sp)
    127c:	6105                	addi	sp,sp,32
    127e:	8082                	ret

00001280 <RCC_APB1PeriphClockCmd>:
RCC_APB1PeriphClockCmd():
E:\GITKraken\Dual-core_Communication_Demo\Dual-core_Communication_Demo\MASTER\obj/../Libraries/wch_libraries/Peripheral/ch32v10x_rcc.c:603
*                    RCC_APB1Periph_DAC.                
*                  NewState: ENABLE or DISABLE.
* Return         : None
*******************************************************************************/	
void RCC_APB1PeriphClockCmd(uint32_t RCC_APB1Periph, FunctionalState NewState)
{
    1280:	1101                	addi	sp,sp,-32
    1282:	ce22                	sw	s0,28(sp)
    1284:	1000                	addi	s0,sp,32
    1286:	fea42623          	sw	a0,-20(s0)
    128a:	feb42423          	sw	a1,-24(s0)
E:\GITKraken\Dual-core_Communication_Demo\Dual-core_Communication_Demo\MASTER\obj/../Libraries/wch_libraries/Peripheral/ch32v10x_rcc.c:604
  if (NewState != DISABLE)
    128e:	fe842783          	lw	a5,-24(s0)
    1292:	cb99                	beqz	a5,12a8 <RCC_APB1PeriphClockCmd+0x28>
E:\GITKraken\Dual-core_Communication_Demo\Dual-core_Communication_Demo\MASTER\obj/../Libraries/wch_libraries/Peripheral/ch32v10x_rcc.c:606
  {
    RCC->APB1PCENR |= RCC_APB1Periph;
    1294:	400217b7          	lui	a5,0x40021
    1298:	4fd4                	lw	a3,28(a5)
    129a:	400217b7          	lui	a5,0x40021
    129e:	fec42703          	lw	a4,-20(s0)
    12a2:	8f55                	or	a4,a4,a3
    12a4:	cfd8                	sw	a4,28(a5)
E:\GITKraken\Dual-core_Communication_Demo\Dual-core_Communication_Demo\MASTER\obj/../Libraries/wch_libraries/Peripheral/ch32v10x_rcc.c:612
  }
  else
  {
    RCC->APB1PCENR &= ~RCC_APB1Periph;
  }
}
    12a6:	a821                	j	12be <RCC_APB1PeriphClockCmd+0x3e>
E:\GITKraken\Dual-core_Communication_Demo\Dual-core_Communication_Demo\MASTER\obj/../Libraries/wch_libraries/Peripheral/ch32v10x_rcc.c:610
    RCC->APB1PCENR &= ~RCC_APB1Periph;
    12a8:	400217b7          	lui	a5,0x40021
    12ac:	4fd4                	lw	a3,28(a5)
    12ae:	fec42783          	lw	a5,-20(s0)
    12b2:	fff7c713          	not	a4,a5
    12b6:	400217b7          	lui	a5,0x40021
    12ba:	8f75                	and	a4,a4,a3
    12bc:	cfd8                	sw	a4,28(a5)
E:\GITKraken\Dual-core_Communication_Demo\Dual-core_Communication_Demo\MASTER\obj/../Libraries/wch_libraries/Peripheral/ch32v10x_rcc.c:612
}
    12be:	0001                	nop
    12c0:	4472                	lw	s0,28(sp)
    12c2:	6105                	addi	sp,sp,32
    12c4:	8082                	ret

000012c6 <SPI_Init>:
SPI_Init():
E:\GITKraken\Dual-core_Communication_Demo\Dual-core_Communication_Demo\MASTER\obj/../Libraries/wch_libraries/Peripheral/ch32v10x_spi.c:83
*                  SPI_InitStruct: pointer to a SPI_InitTypeDef structure that
*      contains the configuration information for the specified SPI peripheral.
* Return         : None
*******************************************************************************/
void SPI_Init(SPI_TypeDef* SPIx, SPI_InitTypeDef* SPI_InitStruct)
{
    12c6:	7179                	addi	sp,sp,-48
    12c8:	d622                	sw	s0,44(sp)
    12ca:	1800                	addi	s0,sp,48
    12cc:	fca42e23          	sw	a0,-36(s0)
    12d0:	fcb42c23          	sw	a1,-40(s0)
E:\GITKraken\Dual-core_Communication_Demo\Dual-core_Communication_Demo\MASTER\obj/../Libraries/wch_libraries/Peripheral/ch32v10x_spi.c:84
  uint16_t tmpreg = 0;
    12d4:	fe041723          	sh	zero,-18(s0)
E:\GITKraken\Dual-core_Communication_Demo\Dual-core_Communication_Demo\MASTER\obj/../Libraries/wch_libraries/Peripheral/ch32v10x_spi.c:86
  
  tmpreg = SPIx->CTLR1;
    12d8:	fdc42783          	lw	a5,-36(s0)
    12dc:	0007d783          	lhu	a5,0(a5) # 40021000 <_eusrstack+0x2001c000>
    12e0:	fef41723          	sh	a5,-18(s0)
E:\GITKraken\Dual-core_Communication_Demo\Dual-core_Communication_Demo\MASTER\obj/../Libraries/wch_libraries/Peripheral/ch32v10x_spi.c:87
  tmpreg &= CTLR1_CLEAR_Mask;
    12e4:	fee45703          	lhu	a4,-18(s0)
    12e8:	678d                	lui	a5,0x3
    12ea:	04078793          	addi	a5,a5,64 # 3040 <_vfiprintf_r+0xee>
    12ee:	8ff9                	and	a5,a5,a4
    12f0:	fef41723          	sh	a5,-18(s0)
E:\GITKraken\Dual-core_Communication_Demo\Dual-core_Communication_Demo\MASTER\obj/../Libraries/wch_libraries/Peripheral/ch32v10x_spi.c:88
  tmpreg |= (uint16_t)((uint32_t)SPI_InitStruct->SPI_Direction | SPI_InitStruct->SPI_Mode |
    12f4:	fd842783          	lw	a5,-40(s0)
    12f8:	0007d703          	lhu	a4,0(a5)
    12fc:	fd842783          	lw	a5,-40(s0)
    1300:	0027d783          	lhu	a5,2(a5)
    1304:	8fd9                	or	a5,a5,a4
    1306:	01079713          	slli	a4,a5,0x10
    130a:	8341                	srli	a4,a4,0x10
E:\GITKraken\Dual-core_Communication_Demo\Dual-core_Communication_Demo\MASTER\obj/../Libraries/wch_libraries/Peripheral/ch32v10x_spi.c:89
                  SPI_InitStruct->SPI_DataSize | SPI_InitStruct->SPI_CPOL |  
    130c:	fd842783          	lw	a5,-40(s0)
    1310:	0047d783          	lhu	a5,4(a5)
E:\GITKraken\Dual-core_Communication_Demo\Dual-core_Communication_Demo\MASTER\obj/../Libraries/wch_libraries/Peripheral/ch32v10x_spi.c:88
  tmpreg |= (uint16_t)((uint32_t)SPI_InitStruct->SPI_Direction | SPI_InitStruct->SPI_Mode |
    1314:	8fd9                	or	a5,a5,a4
    1316:	01079713          	slli	a4,a5,0x10
    131a:	8341                	srli	a4,a4,0x10
E:\GITKraken\Dual-core_Communication_Demo\Dual-core_Communication_Demo\MASTER\obj/../Libraries/wch_libraries/Peripheral/ch32v10x_spi.c:89
                  SPI_InitStruct->SPI_DataSize | SPI_InitStruct->SPI_CPOL |  
    131c:	fd842783          	lw	a5,-40(s0)
    1320:	0067d783          	lhu	a5,6(a5)
E:\GITKraken\Dual-core_Communication_Demo\Dual-core_Communication_Demo\MASTER\obj/../Libraries/wch_libraries/Peripheral/ch32v10x_spi.c:88
  tmpreg |= (uint16_t)((uint32_t)SPI_InitStruct->SPI_Direction | SPI_InitStruct->SPI_Mode |
    1324:	8fd9                	or	a5,a5,a4
    1326:	01079713          	slli	a4,a5,0x10
    132a:	8341                	srli	a4,a4,0x10
E:\GITKraken\Dual-core_Communication_Demo\Dual-core_Communication_Demo\MASTER\obj/../Libraries/wch_libraries/Peripheral/ch32v10x_spi.c:90
                  SPI_InitStruct->SPI_CPHA | SPI_InitStruct->SPI_NSS |  
    132c:	fd842783          	lw	a5,-40(s0)
    1330:	0087d783          	lhu	a5,8(a5)
E:\GITKraken\Dual-core_Communication_Demo\Dual-core_Communication_Demo\MASTER\obj/../Libraries/wch_libraries/Peripheral/ch32v10x_spi.c:88
  tmpreg |= (uint16_t)((uint32_t)SPI_InitStruct->SPI_Direction | SPI_InitStruct->SPI_Mode |
    1334:	8fd9                	or	a5,a5,a4
    1336:	01079713          	slli	a4,a5,0x10
    133a:	8341                	srli	a4,a4,0x10
E:\GITKraken\Dual-core_Communication_Demo\Dual-core_Communication_Demo\MASTER\obj/../Libraries/wch_libraries/Peripheral/ch32v10x_spi.c:90
                  SPI_InitStruct->SPI_CPHA | SPI_InitStruct->SPI_NSS |  
    133c:	fd842783          	lw	a5,-40(s0)
    1340:	00a7d783          	lhu	a5,10(a5)
E:\GITKraken\Dual-core_Communication_Demo\Dual-core_Communication_Demo\MASTER\obj/../Libraries/wch_libraries/Peripheral/ch32v10x_spi.c:88
  tmpreg |= (uint16_t)((uint32_t)SPI_InitStruct->SPI_Direction | SPI_InitStruct->SPI_Mode |
    1344:	8fd9                	or	a5,a5,a4
    1346:	01079713          	slli	a4,a5,0x10
    134a:	8341                	srli	a4,a4,0x10
E:\GITKraken\Dual-core_Communication_Demo\Dual-core_Communication_Demo\MASTER\obj/../Libraries/wch_libraries/Peripheral/ch32v10x_spi.c:91
                  SPI_InitStruct->SPI_BaudRatePrescaler | SPI_InitStruct->SPI_FirstBit);
    134c:	fd842783          	lw	a5,-40(s0)
    1350:	00c7d783          	lhu	a5,12(a5)
E:\GITKraken\Dual-core_Communication_Demo\Dual-core_Communication_Demo\MASTER\obj/../Libraries/wch_libraries/Peripheral/ch32v10x_spi.c:88
  tmpreg |= (uint16_t)((uint32_t)SPI_InitStruct->SPI_Direction | SPI_InitStruct->SPI_Mode |
    1354:	8fd9                	or	a5,a5,a4
    1356:	01079713          	slli	a4,a5,0x10
    135a:	8341                	srli	a4,a4,0x10
E:\GITKraken\Dual-core_Communication_Demo\Dual-core_Communication_Demo\MASTER\obj/../Libraries/wch_libraries/Peripheral/ch32v10x_spi.c:91
                  SPI_InitStruct->SPI_BaudRatePrescaler | SPI_InitStruct->SPI_FirstBit);
    135c:	fd842783          	lw	a5,-40(s0)
    1360:	00e7d783          	lhu	a5,14(a5)
E:\GITKraken\Dual-core_Communication_Demo\Dual-core_Communication_Demo\MASTER\obj/../Libraries/wch_libraries/Peripheral/ch32v10x_spi.c:88
  tmpreg |= (uint16_t)((uint32_t)SPI_InitStruct->SPI_Direction | SPI_InitStruct->SPI_Mode |
    1364:	8fd9                	or	a5,a5,a4
    1366:	01079713          	slli	a4,a5,0x10
    136a:	8341                	srli	a4,a4,0x10
    136c:	fee45783          	lhu	a5,-18(s0)
    1370:	8fd9                	or	a5,a5,a4
    1372:	fef41723          	sh	a5,-18(s0)
E:\GITKraken\Dual-core_Communication_Demo\Dual-core_Communication_Demo\MASTER\obj/../Libraries/wch_libraries/Peripheral/ch32v10x_spi.c:93

  SPIx->CTLR1 = tmpreg;
    1376:	fdc42783          	lw	a5,-36(s0)
    137a:	fee45703          	lhu	a4,-18(s0)
    137e:	00e79023          	sh	a4,0(a5)
E:\GITKraken\Dual-core_Communication_Demo\Dual-core_Communication_Demo\MASTER\obj/../Libraries/wch_libraries/Peripheral/ch32v10x_spi.c:94
  SPIx->I2SCFGR &= SPI_Mode_Select;		
    1382:	fdc42783          	lw	a5,-36(s0)
    1386:	01c7d783          	lhu	a5,28(a5)
    138a:	01079713          	slli	a4,a5,0x10
    138e:	8341                	srli	a4,a4,0x10
    1390:	77fd                	lui	a5,0xfffff
    1392:	7ff78793          	addi	a5,a5,2047 # fffff7ff <_eusrstack+0xdfffa7ff>
    1396:	8ff9                	and	a5,a5,a4
    1398:	01079713          	slli	a4,a5,0x10
    139c:	8341                	srli	a4,a4,0x10
    139e:	fdc42783          	lw	a5,-36(s0)
    13a2:	00e79e23          	sh	a4,28(a5)
E:\GITKraken\Dual-core_Communication_Demo\Dual-core_Communication_Demo\MASTER\obj/../Libraries/wch_libraries/Peripheral/ch32v10x_spi.c:95
  SPIx->CRCR = SPI_InitStruct->SPI_CRCPolynomial;
    13a6:	fd842783          	lw	a5,-40(s0)
    13aa:	0107d703          	lhu	a4,16(a5)
    13ae:	fdc42783          	lw	a5,-36(s0)
    13b2:	00e79823          	sh	a4,16(a5)
E:\GITKraken\Dual-core_Communication_Demo\Dual-core_Communication_Demo\MASTER\obj/../Libraries/wch_libraries/Peripheral/ch32v10x_spi.c:96
}
    13b6:	0001                	nop
    13b8:	5432                	lw	s0,44(sp)
    13ba:	6145                	addi	sp,sp,48
    13bc:	8082                	ret

000013be <SPI_Cmd>:
SPI_Cmd():
E:\GITKraken\Dual-core_Communication_Demo\Dual-core_Communication_Demo\MASTER\obj/../Libraries/wch_libraries/Peripheral/ch32v10x_spi.c:221
* Input          : SPIx: where x can be 1, 2 or 3 to select the SPI peripheral.
*                  NewState: ENABLE or DISABLE.
* Return         : None
*******************************************************************************/
void SPI_Cmd(SPI_TypeDef* SPIx, FunctionalState NewState)
{
    13be:	1101                	addi	sp,sp,-32
    13c0:	ce22                	sw	s0,28(sp)
    13c2:	1000                	addi	s0,sp,32
    13c4:	fea42623          	sw	a0,-20(s0)
    13c8:	feb42423          	sw	a1,-24(s0)
E:\GITKraken\Dual-core_Communication_Demo\Dual-core_Communication_Demo\MASTER\obj/../Libraries/wch_libraries/Peripheral/ch32v10x_spi.c:222
  if (NewState != DISABLE)
    13cc:	fe842783          	lw	a5,-24(s0)
    13d0:	c38d                	beqz	a5,13f2 <SPI_Cmd+0x34>
E:\GITKraken\Dual-core_Communication_Demo\Dual-core_Communication_Demo\MASTER\obj/../Libraries/wch_libraries/Peripheral/ch32v10x_spi.c:224
  {
    SPIx->CTLR1 |= CTLR1_SPE_Set;
    13d2:	fec42783          	lw	a5,-20(s0)
    13d6:	0007d783          	lhu	a5,0(a5)
    13da:	07c2                	slli	a5,a5,0x10
    13dc:	83c1                	srli	a5,a5,0x10
    13de:	0407e793          	ori	a5,a5,64
    13e2:	01079713          	slli	a4,a5,0x10
    13e6:	8341                	srli	a4,a4,0x10
    13e8:	fec42783          	lw	a5,-20(s0)
    13ec:	00e79023          	sh	a4,0(a5)
E:\GITKraken\Dual-core_Communication_Demo\Dual-core_Communication_Demo\MASTER\obj/../Libraries/wch_libraries/Peripheral/ch32v10x_spi.c:230
  }
  else
  {
    SPIx->CTLR1 &= CTLR1_SPE_Reset;
  }
}
    13f0:	a005                	j	1410 <SPI_Cmd+0x52>
E:\GITKraken\Dual-core_Communication_Demo\Dual-core_Communication_Demo\MASTER\obj/../Libraries/wch_libraries/Peripheral/ch32v10x_spi.c:228
    SPIx->CTLR1 &= CTLR1_SPE_Reset;
    13f2:	fec42783          	lw	a5,-20(s0)
    13f6:	0007d783          	lhu	a5,0(a5)
    13fa:	07c2                	slli	a5,a5,0x10
    13fc:	83c1                	srli	a5,a5,0x10
    13fe:	fbf7f793          	andi	a5,a5,-65
    1402:	01079713          	slli	a4,a5,0x10
    1406:	8341                	srli	a4,a4,0x10
    1408:	fec42783          	lw	a5,-20(s0)
    140c:	00e79023          	sh	a4,0(a5)
E:\GITKraken\Dual-core_Communication_Demo\Dual-core_Communication_Demo\MASTER\obj/../Libraries/wch_libraries/Peripheral/ch32v10x_spi.c:230
}
    1410:	0001                	nop
    1412:	4472                	lw	s0,28(sp)
    1414:	6105                	addi	sp,sp,32
    1416:	8082                	ret

00001418 <TIM_GetITStatus>:
TIM_GetITStatus():
E:\GITKraken\Dual-core_Communication_Demo\Dual-core_Communication_Demo\MASTER\obj/../Libraries/wch_libraries/Peripheral/ch32v10x_tim.c:1853
*                    TIM_IT_Trigger: TIM Trigger Interrupt source.
*                    TIM_IT_Break: TIM Break Interrupt source.
* Return         : bitstatus: SET or RESET.
*******************************************************************************/
ITStatus TIM_GetITStatus(TIM_TypeDef* TIMx, uint16_t TIM_IT)
{
    1418:	7179                	addi	sp,sp,-48
    141a:	d622                	sw	s0,44(sp)
    141c:	1800                	addi	s0,sp,48
    141e:	fca42e23          	sw	a0,-36(s0)
    1422:	87ae                	mv	a5,a1
    1424:	fcf41d23          	sh	a5,-38(s0)
E:\GITKraken\Dual-core_Communication_Demo\Dual-core_Communication_Demo\MASTER\obj/../Libraries/wch_libraries/Peripheral/ch32v10x_tim.c:1854
  ITStatus bitstatus = RESET;  
    1428:	fe042623          	sw	zero,-20(s0)
E:\GITKraken\Dual-core_Communication_Demo\Dual-core_Communication_Demo\MASTER\obj/../Libraries/wch_libraries/Peripheral/ch32v10x_tim.c:1855
  uint16_t itstatus = 0x0, itenable = 0x0;
    142c:	fe041523          	sh	zero,-22(s0)
    1430:	fe041423          	sh	zero,-24(s0)
E:\GITKraken\Dual-core_Communication_Demo\Dual-core_Communication_Demo\MASTER\obj/../Libraries/wch_libraries/Peripheral/ch32v10x_tim.c:1857
   
  itstatus = TIMx->INTFR & TIM_IT;
    1434:	fdc42783          	lw	a5,-36(s0)
    1438:	0107d783          	lhu	a5,16(a5)
    143c:	01079713          	slli	a4,a5,0x10
    1440:	8341                	srli	a4,a4,0x10
    1442:	fda45783          	lhu	a5,-38(s0)
    1446:	8ff9                	and	a5,a5,a4
    1448:	fef41523          	sh	a5,-22(s0)
E:\GITKraken\Dual-core_Communication_Demo\Dual-core_Communication_Demo\MASTER\obj/../Libraries/wch_libraries/Peripheral/ch32v10x_tim.c:1859
  
  itenable = TIMx->DMAINTENR & TIM_IT;
    144c:	fdc42783          	lw	a5,-36(s0)
    1450:	00c7d783          	lhu	a5,12(a5)
    1454:	01079713          	slli	a4,a5,0x10
    1458:	8341                	srli	a4,a4,0x10
    145a:	fda45783          	lhu	a5,-38(s0)
    145e:	8ff9                	and	a5,a5,a4
    1460:	fef41423          	sh	a5,-24(s0)
E:\GITKraken\Dual-core_Communication_Demo\Dual-core_Communication_Demo\MASTER\obj/../Libraries/wch_libraries/Peripheral/ch32v10x_tim.c:1860
  if ((itstatus != (uint16_t)RESET) && (itenable != (uint16_t)RESET))
    1464:	fea45783          	lhu	a5,-22(s0)
    1468:	cb81                	beqz	a5,1478 <TIM_GetITStatus+0x60>
E:\GITKraken\Dual-core_Communication_Demo\Dual-core_Communication_Demo\MASTER\obj/../Libraries/wch_libraries/Peripheral/ch32v10x_tim.c:1860 (discriminator 1)
    146a:	fe845783          	lhu	a5,-24(s0)
    146e:	c789                	beqz	a5,1478 <TIM_GetITStatus+0x60>
E:\GITKraken\Dual-core_Communication_Demo\Dual-core_Communication_Demo\MASTER\obj/../Libraries/wch_libraries/Peripheral/ch32v10x_tim.c:1862
  {
    bitstatus = SET;
    1470:	4785                	li	a5,1
    1472:	fef42623          	sw	a5,-20(s0)
    1476:	a019                	j	147c <TIM_GetITStatus+0x64>
E:\GITKraken\Dual-core_Communication_Demo\Dual-core_Communication_Demo\MASTER\obj/../Libraries/wch_libraries/Peripheral/ch32v10x_tim.c:1866
  }
  else
  {
    bitstatus = RESET;
    1478:	fe042623          	sw	zero,-20(s0)
E:\GITKraken\Dual-core_Communication_Demo\Dual-core_Communication_Demo\MASTER\obj/../Libraries/wch_libraries/Peripheral/ch32v10x_tim.c:1869
  }
	
  return bitstatus;
    147c:	fec42783          	lw	a5,-20(s0)
E:\GITKraken\Dual-core_Communication_Demo\Dual-core_Communication_Demo\MASTER\obj/../Libraries/wch_libraries/Peripheral/ch32v10x_tim.c:1870
}
    1480:	853e                	mv	a0,a5
    1482:	5432                	lw	s0,44(sp)
    1484:	6145                	addi	sp,sp,48
    1486:	8082                	ret

00001488 <TIM_ClearITPendingBit>:
TIM_ClearITPendingBit():
E:\GITKraken\Dual-core_Communication_Demo\Dual-core_Communication_Demo\MASTER\obj/../Libraries/wch_libraries/Peripheral/ch32v10x_tim.c:1888
*                    TIM_IT_Trigger: TIM Trigger Interrupt source.
*                    TIM_IT_Break: TIM Break Interrupt source.
* Return         : None
*******************************************************************************/
void TIM_ClearITPendingBit(TIM_TypeDef* TIMx, uint16_t TIM_IT)
{
    1488:	1101                	addi	sp,sp,-32
    148a:	ce22                	sw	s0,28(sp)
    148c:	1000                	addi	s0,sp,32
    148e:	fea42623          	sw	a0,-20(s0)
    1492:	87ae                	mv	a5,a1
    1494:	fef41523          	sh	a5,-22(s0)
E:\GITKraken\Dual-core_Communication_Demo\Dual-core_Communication_Demo\MASTER\obj/../Libraries/wch_libraries/Peripheral/ch32v10x_tim.c:1889
  TIMx->INTFR = (uint16_t)~TIM_IT;
    1498:	fea45783          	lhu	a5,-22(s0)
    149c:	fff7c793          	not	a5,a5
    14a0:	01079713          	slli	a4,a5,0x10
    14a4:	8341                	srli	a4,a4,0x10
    14a6:	fec42783          	lw	a5,-20(s0)
    14aa:	00e79823          	sh	a4,16(a5)
E:\GITKraken\Dual-core_Communication_Demo\Dual-core_Communication_Demo\MASTER\obj/../Libraries/wch_libraries/Peripheral/ch32v10x_tim.c:1890
}
    14ae:	0001                	nop
    14b0:	4472                	lw	s0,28(sp)
    14b2:	6105                	addi	sp,sp,32
    14b4:	8082                	ret

000014b6 <USART_Init>:
USART_Init():
E:\GITKraken\Dual-core_Communication_Demo\Dual-core_Communication_Demo\MASTER\obj/../Libraries/wch_libraries/Peripheral/ch32v10x_usart.c:105
*                  USART_InitStruct: pointer to a USART_InitTypeDef structure
*      that contains the configuration information for the specified USART peripheral. 
* Return         : None
*******************************************************************************/
void USART_Init(USART_TypeDef* USARTx, USART_InitTypeDef* USART_InitStruct)
{
    14b6:	715d                	addi	sp,sp,-80
    14b8:	c686                	sw	ra,76(sp)
    14ba:	c4a2                	sw	s0,72(sp)
    14bc:	0880                	addi	s0,sp,80
    14be:	faa42e23          	sw	a0,-68(s0)
    14c2:	fab42c23          	sw	a1,-72(s0)
E:\GITKraken\Dual-core_Communication_Demo\Dual-core_Communication_Demo\MASTER\obj/../Libraries/wch_libraries/Peripheral/ch32v10x_usart.c:106
  uint32_t tmpreg = 0x00, apbclock = 0x00;
    14c6:	fe042623          	sw	zero,-20(s0)
    14ca:	fe042423          	sw	zero,-24(s0)
E:\GITKraken\Dual-core_Communication_Demo\Dual-core_Communication_Demo\MASTER\obj/../Libraries/wch_libraries/Peripheral/ch32v10x_usart.c:107
  uint32_t integerdivider = 0x00;
    14ce:	fe042223          	sw	zero,-28(s0)
E:\GITKraken\Dual-core_Communication_Demo\Dual-core_Communication_Demo\MASTER\obj/../Libraries/wch_libraries/Peripheral/ch32v10x_usart.c:108
  uint32_t fractionaldivider = 0x00;
    14d2:	fe042023          	sw	zero,-32(s0)
E:\GITKraken\Dual-core_Communication_Demo\Dual-core_Communication_Demo\MASTER\obj/../Libraries/wch_libraries/Peripheral/ch32v10x_usart.c:109
  uint32_t usartxbase = 0;
    14d6:	fc042e23          	sw	zero,-36(s0)
E:\GITKraken\Dual-core_Communication_Demo\Dual-core_Communication_Demo\MASTER\obj/../Libraries/wch_libraries/Peripheral/ch32v10x_usart.c:116

  if (USART_InitStruct->USART_HardwareFlowControl != USART_HardwareFlowControl_None)
  {
  }

  usartxbase = (uint32_t)USARTx;
    14da:	fbc42783          	lw	a5,-68(s0)
    14de:	fcf42e23          	sw	a5,-36(s0)
E:\GITKraken\Dual-core_Communication_Demo\Dual-core_Communication_Demo\MASTER\obj/../Libraries/wch_libraries/Peripheral/ch32v10x_usart.c:117
  tmpreg = USARTx->CTLR2;
    14e2:	fbc42783          	lw	a5,-68(s0)
    14e6:	0107d783          	lhu	a5,16(a5)
    14ea:	07c2                	slli	a5,a5,0x10
    14ec:	83c1                	srli	a5,a5,0x10
    14ee:	fef42623          	sw	a5,-20(s0)
E:\GITKraken\Dual-core_Communication_Demo\Dual-core_Communication_Demo\MASTER\obj/../Libraries/wch_libraries/Peripheral/ch32v10x_usart.c:118
  tmpreg &= CTLR2_STOP_CLEAR_Mask;
    14f2:	fec42703          	lw	a4,-20(s0)
    14f6:	67b5                	lui	a5,0xd
    14f8:	17fd                	addi	a5,a5,-1
    14fa:	8ff9                	and	a5,a5,a4
    14fc:	fef42623          	sw	a5,-20(s0)
E:\GITKraken\Dual-core_Communication_Demo\Dual-core_Communication_Demo\MASTER\obj/../Libraries/wch_libraries/Peripheral/ch32v10x_usart.c:119
  tmpreg |= (uint32_t)USART_InitStruct->USART_StopBits;  
    1500:	fb842783          	lw	a5,-72(s0)
    1504:	0067d783          	lhu	a5,6(a5) # d006 <_data_lma+0x8822>
    1508:	873e                	mv	a4,a5
    150a:	fec42783          	lw	a5,-20(s0)
    150e:	8fd9                	or	a5,a5,a4
    1510:	fef42623          	sw	a5,-20(s0)
E:\GITKraken\Dual-core_Communication_Demo\Dual-core_Communication_Demo\MASTER\obj/../Libraries/wch_libraries/Peripheral/ch32v10x_usart.c:121
	
  USARTx->CTLR2 = (uint16_t)tmpreg;
    1514:	fec42783          	lw	a5,-20(s0)
    1518:	01079713          	slli	a4,a5,0x10
    151c:	8341                	srli	a4,a4,0x10
    151e:	fbc42783          	lw	a5,-68(s0)
    1522:	00e79823          	sh	a4,16(a5)
E:\GITKraken\Dual-core_Communication_Demo\Dual-core_Communication_Demo\MASTER\obj/../Libraries/wch_libraries/Peripheral/ch32v10x_usart.c:122
  tmpreg = USARTx->CTLR1;
    1526:	fbc42783          	lw	a5,-68(s0)
    152a:	00c7d783          	lhu	a5,12(a5)
    152e:	07c2                	slli	a5,a5,0x10
    1530:	83c1                	srli	a5,a5,0x10
    1532:	fef42623          	sw	a5,-20(s0)
E:\GITKraken\Dual-core_Communication_Demo\Dual-core_Communication_Demo\MASTER\obj/../Libraries/wch_libraries/Peripheral/ch32v10x_usart.c:123
  tmpreg &= CTLR1_CLEAR_Mask;
    1536:	fec42703          	lw	a4,-20(s0)
    153a:	67bd                	lui	a5,0xf
    153c:	9f378793          	addi	a5,a5,-1549 # e9f3 <_data_lma+0xa20f>
    1540:	8ff9                	and	a5,a5,a4
    1542:	fef42623          	sw	a5,-20(s0)
E:\GITKraken\Dual-core_Communication_Demo\Dual-core_Communication_Demo\MASTER\obj/../Libraries/wch_libraries/Peripheral/ch32v10x_usart.c:124
  tmpreg |= (uint32_t)USART_InitStruct->USART_WordLength | USART_InitStruct->USART_Parity |
    1546:	fb842783          	lw	a5,-72(s0)
    154a:	0047d703          	lhu	a4,4(a5)
    154e:	fb842783          	lw	a5,-72(s0)
    1552:	0087d783          	lhu	a5,8(a5)
    1556:	8fd9                	or	a5,a5,a4
    1558:	01079713          	slli	a4,a5,0x10
    155c:	8341                	srli	a4,a4,0x10
E:\GITKraken\Dual-core_Communication_Demo\Dual-core_Communication_Demo\MASTER\obj/../Libraries/wch_libraries/Peripheral/ch32v10x_usart.c:125
            USART_InitStruct->USART_Mode;
    155e:	fb842783          	lw	a5,-72(s0)
    1562:	00a7d783          	lhu	a5,10(a5)
E:\GITKraken\Dual-core_Communication_Demo\Dual-core_Communication_Demo\MASTER\obj/../Libraries/wch_libraries/Peripheral/ch32v10x_usart.c:124
  tmpreg |= (uint32_t)USART_InitStruct->USART_WordLength | USART_InitStruct->USART_Parity |
    1566:	8fd9                	or	a5,a5,a4
    1568:	07c2                	slli	a5,a5,0x10
    156a:	83c1                	srli	a5,a5,0x10
    156c:	873e                	mv	a4,a5
    156e:	fec42783          	lw	a5,-20(s0)
    1572:	8fd9                	or	a5,a5,a4
    1574:	fef42623          	sw	a5,-20(s0)
E:\GITKraken\Dual-core_Communication_Demo\Dual-core_Communication_Demo\MASTER\obj/../Libraries/wch_libraries/Peripheral/ch32v10x_usart.c:126
  USARTx->CTLR1 = (uint16_t)tmpreg;
    1578:	fec42783          	lw	a5,-20(s0)
    157c:	01079713          	slli	a4,a5,0x10
    1580:	8341                	srli	a4,a4,0x10
    1582:	fbc42783          	lw	a5,-68(s0)
    1586:	00e79623          	sh	a4,12(a5)
E:\GITKraken\Dual-core_Communication_Demo\Dual-core_Communication_Demo\MASTER\obj/../Libraries/wch_libraries/Peripheral/ch32v10x_usart.c:128
 
  tmpreg = USARTx->CTLR3;
    158a:	fbc42783          	lw	a5,-68(s0)
    158e:	0147d783          	lhu	a5,20(a5)
    1592:	07c2                	slli	a5,a5,0x10
    1594:	83c1                	srli	a5,a5,0x10
    1596:	fef42623          	sw	a5,-20(s0)
E:\GITKraken\Dual-core_Communication_Demo\Dual-core_Communication_Demo\MASTER\obj/../Libraries/wch_libraries/Peripheral/ch32v10x_usart.c:129
  tmpreg &= CTLR3_CLEAR_Mask;
    159a:	fec42703          	lw	a4,-20(s0)
    159e:	67c1                	lui	a5,0x10
    15a0:	cff78793          	addi	a5,a5,-769 # fcff <_data_lma+0xb51b>
    15a4:	8ff9                	and	a5,a5,a4
    15a6:	fef42623          	sw	a5,-20(s0)
E:\GITKraken\Dual-core_Communication_Demo\Dual-core_Communication_Demo\MASTER\obj/../Libraries/wch_libraries/Peripheral/ch32v10x_usart.c:130
  tmpreg |= USART_InitStruct->USART_HardwareFlowControl;
    15aa:	fb842783          	lw	a5,-72(s0)
    15ae:	00c7d783          	lhu	a5,12(a5)
    15b2:	873e                	mv	a4,a5
    15b4:	fec42783          	lw	a5,-20(s0)
    15b8:	8fd9                	or	a5,a5,a4
    15ba:	fef42623          	sw	a5,-20(s0)
E:\GITKraken\Dual-core_Communication_Demo\Dual-core_Communication_Demo\MASTER\obj/../Libraries/wch_libraries/Peripheral/ch32v10x_usart.c:131
  USARTx->CTLR3 = (uint16_t)tmpreg;
    15be:	fec42783          	lw	a5,-20(s0)
    15c2:	01079713          	slli	a4,a5,0x10
    15c6:	8341                	srli	a4,a4,0x10
    15c8:	fbc42783          	lw	a5,-68(s0)
    15cc:	00e79a23          	sh	a4,20(a5)
E:\GITKraken\Dual-core_Communication_Demo\Dual-core_Communication_Demo\MASTER\obj/../Libraries/wch_libraries/Peripheral/ch32v10x_usart.c:133

  RCC_GetClocksFreq(&RCC_ClocksStatus);
    15d0:	fc840793          	addi	a5,s0,-56
    15d4:	853e                	mv	a0,a5
    15d6:	34a9                	jal	1020 <RCC_GetClocksFreq>
E:\GITKraken\Dual-core_Communication_Demo\Dual-core_Communication_Demo\MASTER\obj/../Libraries/wch_libraries/Peripheral/ch32v10x_usart.c:135
	
  if (usartxbase == USART1_BASE)
    15d8:	fdc42703          	lw	a4,-36(s0)
    15dc:	400147b7          	lui	a5,0x40014
    15e0:	80078793          	addi	a5,a5,-2048 # 40013800 <_eusrstack+0x2000e800>
    15e4:	00f71763          	bne	a4,a5,15f2 <USART_Init+0x13c>
E:\GITKraken\Dual-core_Communication_Demo\Dual-core_Communication_Demo\MASTER\obj/../Libraries/wch_libraries/Peripheral/ch32v10x_usart.c:137
  {
    apbclock = RCC_ClocksStatus.PCLK2_Frequency;
    15e8:	fd442783          	lw	a5,-44(s0)
    15ec:	fef42423          	sw	a5,-24(s0)
    15f0:	a029                	j	15fa <USART_Init+0x144>
E:\GITKraken\Dual-core_Communication_Demo\Dual-core_Communication_Demo\MASTER\obj/../Libraries/wch_libraries/Peripheral/ch32v10x_usart.c:141
  }
  else
  {
    apbclock = RCC_ClocksStatus.PCLK1_Frequency;
    15f2:	fd042783          	lw	a5,-48(s0)
    15f6:	fef42423          	sw	a5,-24(s0)
E:\GITKraken\Dual-core_Communication_Demo\Dual-core_Communication_Demo\MASTER\obj/../Libraries/wch_libraries/Peripheral/ch32v10x_usart.c:144
  }
  
  if ((USARTx->CTLR1 & CTLR1_OVER8_Set) != 0)
    15fa:	fbc42783          	lw	a5,-68(s0)
    15fe:	00c7d783          	lhu	a5,12(a5)
    1602:	07c2                	slli	a5,a5,0x10
    1604:	83c1                	srli	a5,a5,0x10
    1606:	07c2                	slli	a5,a5,0x10
    1608:	87c1                	srai	a5,a5,0x10
    160a:	0207d263          	bgez	a5,162e <USART_Init+0x178>
E:\GITKraken\Dual-core_Communication_Demo\Dual-core_Communication_Demo\MASTER\obj/../Libraries/wch_libraries/Peripheral/ch32v10x_usart.c:146
  {
    integerdivider = ((25 * apbclock) / (2 * (USART_InitStruct->USART_BaudRate)));    
    160e:	fe842703          	lw	a4,-24(s0)
    1612:	87ba                	mv	a5,a4
    1614:	0786                	slli	a5,a5,0x1
    1616:	97ba                	add	a5,a5,a4
    1618:	078e                	slli	a5,a5,0x3
    161a:	973e                	add	a4,a4,a5
    161c:	fb842783          	lw	a5,-72(s0)
    1620:	439c                	lw	a5,0(a5)
    1622:	0786                	slli	a5,a5,0x1
    1624:	02f757b3          	divu	a5,a4,a5
    1628:	fef42223          	sw	a5,-28(s0)
    162c:	a005                	j	164c <USART_Init+0x196>
E:\GITKraken\Dual-core_Communication_Demo\Dual-core_Communication_Demo\MASTER\obj/../Libraries/wch_libraries/Peripheral/ch32v10x_usart.c:150
  }
  else 
  {
    integerdivider = ((25 * apbclock) / (4 * (USART_InitStruct->USART_BaudRate)));    
    162e:	fe842703          	lw	a4,-24(s0)
    1632:	87ba                	mv	a5,a4
    1634:	0786                	slli	a5,a5,0x1
    1636:	97ba                	add	a5,a5,a4
    1638:	078e                	slli	a5,a5,0x3
    163a:	973e                	add	a4,a4,a5
    163c:	fb842783          	lw	a5,-72(s0)
    1640:	439c                	lw	a5,0(a5)
    1642:	078a                	slli	a5,a5,0x2
    1644:	02f757b3          	divu	a5,a4,a5
    1648:	fef42223          	sw	a5,-28(s0)
E:\GITKraken\Dual-core_Communication_Demo\Dual-core_Communication_Demo\MASTER\obj/../Libraries/wch_libraries/Peripheral/ch32v10x_usart.c:152
  }
  tmpreg = (integerdivider / 100) << 4;
    164c:	fe442703          	lw	a4,-28(s0)
    1650:	06400793          	li	a5,100
    1654:	02f757b3          	divu	a5,a4,a5
    1658:	0792                	slli	a5,a5,0x4
    165a:	fef42623          	sw	a5,-20(s0)
E:\GITKraken\Dual-core_Communication_Demo\Dual-core_Communication_Demo\MASTER\obj/../Libraries/wch_libraries/Peripheral/ch32v10x_usart.c:154

  fractionaldivider = integerdivider - (100 * (tmpreg >> 4));
    165e:	fec42783          	lw	a5,-20(s0)
    1662:	0047d713          	srli	a4,a5,0x4
    1666:	06400793          	li	a5,100
    166a:	02f707b3          	mul	a5,a4,a5
    166e:	fe442703          	lw	a4,-28(s0)
    1672:	40f707b3          	sub	a5,a4,a5
    1676:	fef42023          	sw	a5,-32(s0)
E:\GITKraken\Dual-core_Communication_Demo\Dual-core_Communication_Demo\MASTER\obj/../Libraries/wch_libraries/Peripheral/ch32v10x_usart.c:156

  if ((USARTx->CTLR1 & CTLR1_OVER8_Set) != 0)
    167a:	fbc42783          	lw	a5,-68(s0)
    167e:	00c7d783          	lhu	a5,12(a5)
    1682:	07c2                	slli	a5,a5,0x10
    1684:	83c1                	srli	a5,a5,0x10
    1686:	07c2                	slli	a5,a5,0x10
    1688:	87c1                	srai	a5,a5,0x10
    168a:	0207d263          	bgez	a5,16ae <USART_Init+0x1f8>
E:\GITKraken\Dual-core_Communication_Demo\Dual-core_Communication_Demo\MASTER\obj/../Libraries/wch_libraries/Peripheral/ch32v10x_usart.c:158
  {
    tmpreg |= ((((fractionaldivider * 8) + 50) / 100)) & ((uint8_t)0x07);
    168e:	fe042783          	lw	a5,-32(s0)
    1692:	078e                	slli	a5,a5,0x3
    1694:	03278713          	addi	a4,a5,50
    1698:	06400793          	li	a5,100
    169c:	02f757b3          	divu	a5,a4,a5
    16a0:	8b9d                	andi	a5,a5,7
    16a2:	fec42703          	lw	a4,-20(s0)
    16a6:	8fd9                	or	a5,a5,a4
    16a8:	fef42623          	sw	a5,-20(s0)
    16ac:	a005                	j	16cc <USART_Init+0x216>
E:\GITKraken\Dual-core_Communication_Demo\Dual-core_Communication_Demo\MASTER\obj/../Libraries/wch_libraries/Peripheral/ch32v10x_usart.c:162
  }
  else 
  {
    tmpreg |= ((((fractionaldivider * 16) + 50) / 100)) & ((uint8_t)0x0F);
    16ae:	fe042783          	lw	a5,-32(s0)
    16b2:	0792                	slli	a5,a5,0x4
    16b4:	03278713          	addi	a4,a5,50
    16b8:	06400793          	li	a5,100
    16bc:	02f757b3          	divu	a5,a4,a5
    16c0:	8bbd                	andi	a5,a5,15
    16c2:	fec42703          	lw	a4,-20(s0)
    16c6:	8fd9                	or	a5,a5,a4
    16c8:	fef42623          	sw	a5,-20(s0)
E:\GITKraken\Dual-core_Communication_Demo\Dual-core_Communication_Demo\MASTER\obj/../Libraries/wch_libraries/Peripheral/ch32v10x_usart.c:165
  }
  
  USARTx->BRR = (uint16_t)tmpreg;
    16cc:	fec42783          	lw	a5,-20(s0)
    16d0:	01079713          	slli	a4,a5,0x10
    16d4:	8341                	srli	a4,a4,0x10
    16d6:	fbc42783          	lw	a5,-68(s0)
    16da:	00e79423          	sh	a4,8(a5)
E:\GITKraken\Dual-core_Communication_Demo\Dual-core_Communication_Demo\MASTER\obj/../Libraries/wch_libraries/Peripheral/ch32v10x_usart.c:166
}
    16de:	0001                	nop
    16e0:	40b6                	lw	ra,76(sp)
    16e2:	4426                	lw	s0,72(sp)
    16e4:	6161                	addi	sp,sp,80
    16e6:	8082                	ret

000016e8 <USART_Cmd>:
USART_Cmd():
E:\GITKraken\Dual-core_Communication_Demo\Dual-core_Communication_Demo\MASTER\obj/../Libraries/wch_libraries/Peripheral/ch32v10x_usart.c:229
* Input          : USARTx: where x can be 1, 2, 3 to select the USART peripheral.
*                  NewState: ENABLE or DISABLE.
* Return         : None
*******************************************************************************/
void USART_Cmd(USART_TypeDef* USARTx, FunctionalState NewState)
{
    16e8:	1101                	addi	sp,sp,-32
    16ea:	ce22                	sw	s0,28(sp)
    16ec:	1000                	addi	s0,sp,32
    16ee:	fea42623          	sw	a0,-20(s0)
    16f2:	feb42423          	sw	a1,-24(s0)
E:\GITKraken\Dual-core_Communication_Demo\Dual-core_Communication_Demo\MASTER\obj/../Libraries/wch_libraries/Peripheral/ch32v10x_usart.c:230
  if (NewState != DISABLE)
    16f6:	fe842783          	lw	a5,-24(s0)
    16fa:	c395                	beqz	a5,171e <USART_Cmd+0x36>
E:\GITKraken\Dual-core_Communication_Demo\Dual-core_Communication_Demo\MASTER\obj/../Libraries/wch_libraries/Peripheral/ch32v10x_usart.c:232
  {
    USARTx->CTLR1 |= CTLR1_UE_Set;
    16fc:	fec42783          	lw	a5,-20(s0)
    1700:	00c7d783          	lhu	a5,12(a5)
    1704:	01079713          	slli	a4,a5,0x10
    1708:	8341                	srli	a4,a4,0x10
    170a:	6789                	lui	a5,0x2
    170c:	8fd9                	or	a5,a5,a4
    170e:	01079713          	slli	a4,a5,0x10
    1712:	8341                	srli	a4,a4,0x10
    1714:	fec42783          	lw	a5,-20(s0)
    1718:	00e79623          	sh	a4,12(a5) # 200c <ips114_showint16+0xdc>
E:\GITKraken\Dual-core_Communication_Demo\Dual-core_Communication_Demo\MASTER\obj/../Libraries/wch_libraries/Peripheral/ch32v10x_usart.c:238
  }
  else
  {
    USARTx->CTLR1 &= CTLR1_UE_Reset;
  }
}
    171c:	a015                	j	1740 <USART_Cmd+0x58>
E:\GITKraken\Dual-core_Communication_Demo\Dual-core_Communication_Demo\MASTER\obj/../Libraries/wch_libraries/Peripheral/ch32v10x_usart.c:236
    USARTx->CTLR1 &= CTLR1_UE_Reset;
    171e:	fec42783          	lw	a5,-20(s0)
    1722:	00c7d783          	lhu	a5,12(a5)
    1726:	01079713          	slli	a4,a5,0x10
    172a:	8341                	srli	a4,a4,0x10
    172c:	77f9                	lui	a5,0xffffe
    172e:	17fd                	addi	a5,a5,-1
    1730:	8ff9                	and	a5,a5,a4
    1732:	01079713          	slli	a4,a5,0x10
    1736:	8341                	srli	a4,a4,0x10
    1738:	fec42783          	lw	a5,-20(s0)
    173c:	00e79623          	sh	a4,12(a5) # ffffe00c <_eusrstack+0xdfff900c>
E:\GITKraken\Dual-core_Communication_Demo\Dual-core_Communication_Demo\MASTER\obj/../Libraries/wch_libraries/Peripheral/ch32v10x_usart.c:238
}
    1740:	0001                	nop
    1742:	4472                	lw	s0,28(sp)
    1744:	6105                	addi	sp,sp,32
    1746:	8082                	ret

00001748 <USART_ITConfig>:
USART_ITConfig():
E:\GITKraken\Dual-core_Communication_Demo\Dual-core_Communication_Demo\MASTER\obj/../Libraries/wch_libraries/Peripheral/ch32v10x_usart.c:257
*                    USART_IT_ERR:  Error interrupt.
*                  NewState: ENABLE or DISABLE.
* Return         : None
*******************************************************************************/
void USART_ITConfig(USART_TypeDef* USARTx, uint16_t USART_IT, FunctionalState NewState)
{
    1748:	7179                	addi	sp,sp,-48
    174a:	d622                	sw	s0,44(sp)
    174c:	1800                	addi	s0,sp,48
    174e:	fca42e23          	sw	a0,-36(s0)
    1752:	87ae                	mv	a5,a1
    1754:	fcc42a23          	sw	a2,-44(s0)
    1758:	fcf41d23          	sh	a5,-38(s0)
E:\GITKraken\Dual-core_Communication_Demo\Dual-core_Communication_Demo\MASTER\obj/../Libraries/wch_libraries/Peripheral/ch32v10x_usart.c:258
  uint32_t usartreg = 0x00, itpos = 0x00, itmask = 0x00;
    175c:	fe042423          	sw	zero,-24(s0)
    1760:	fe042223          	sw	zero,-28(s0)
    1764:	fe042023          	sw	zero,-32(s0)
E:\GITKraken\Dual-core_Communication_Demo\Dual-core_Communication_Demo\MASTER\obj/../Libraries/wch_libraries/Peripheral/ch32v10x_usart.c:259
  uint32_t usartxbase = 0x00;
    1768:	fe042623          	sw	zero,-20(s0)
E:\GITKraken\Dual-core_Communication_Demo\Dual-core_Communication_Demo\MASTER\obj/../Libraries/wch_libraries/Peripheral/ch32v10x_usart.c:265

  if (USART_IT == USART_IT_CTS)
  {
  }   
  
  usartxbase = (uint32_t)USARTx;
    176c:	fdc42783          	lw	a5,-36(s0)
    1770:	fef42623          	sw	a5,-20(s0)
E:\GITKraken\Dual-core_Communication_Demo\Dual-core_Communication_Demo\MASTER\obj/../Libraries/wch_libraries/Peripheral/ch32v10x_usart.c:266
  usartreg = (((uint8_t)USART_IT) >> 0x05);
    1774:	fda45783          	lhu	a5,-38(s0)
    1778:	0ff7f793          	andi	a5,a5,255
    177c:	8395                	srli	a5,a5,0x5
    177e:	0ff7f793          	andi	a5,a5,255
    1782:	fef42423          	sw	a5,-24(s0)
E:\GITKraken\Dual-core_Communication_Demo\Dual-core_Communication_Demo\MASTER\obj/../Libraries/wch_libraries/Peripheral/ch32v10x_usart.c:267
  itpos = USART_IT & IT_Mask;
    1786:	fda45783          	lhu	a5,-38(s0)
    178a:	8bfd                	andi	a5,a5,31
    178c:	fef42223          	sw	a5,-28(s0)
E:\GITKraken\Dual-core_Communication_Demo\Dual-core_Communication_Demo\MASTER\obj/../Libraries/wch_libraries/Peripheral/ch32v10x_usart.c:268
  itmask = (((uint32_t)0x01) << itpos);
    1790:	fe442783          	lw	a5,-28(s0)
    1794:	4705                	li	a4,1
    1796:	00f717b3          	sll	a5,a4,a5
    179a:	fef42023          	sw	a5,-32(s0)
E:\GITKraken\Dual-core_Communication_Demo\Dual-core_Communication_Demo\MASTER\obj/../Libraries/wch_libraries/Peripheral/ch32v10x_usart.c:270
    
  if (usartreg == 0x01) 
    179e:	fe842703          	lw	a4,-24(s0)
    17a2:	4785                	li	a5,1
    17a4:	00f71863          	bne	a4,a5,17b4 <USART_ITConfig+0x6c>
E:\GITKraken\Dual-core_Communication_Demo\Dual-core_Communication_Demo\MASTER\obj/../Libraries/wch_libraries/Peripheral/ch32v10x_usart.c:272
  {
    usartxbase += 0x0C;
    17a8:	fec42783          	lw	a5,-20(s0)
    17ac:	07b1                	addi	a5,a5,12
    17ae:	fef42623          	sw	a5,-20(s0)
    17b2:	a00d                	j	17d4 <USART_ITConfig+0x8c>
E:\GITKraken\Dual-core_Communication_Demo\Dual-core_Communication_Demo\MASTER\obj/../Libraries/wch_libraries/Peripheral/ch32v10x_usart.c:274
  }
  else if (usartreg == 0x02) 
    17b4:	fe842703          	lw	a4,-24(s0)
    17b8:	4789                	li	a5,2
    17ba:	00f71863          	bne	a4,a5,17ca <USART_ITConfig+0x82>
E:\GITKraken\Dual-core_Communication_Demo\Dual-core_Communication_Demo\MASTER\obj/../Libraries/wch_libraries/Peripheral/ch32v10x_usart.c:276
  {
    usartxbase += 0x10;
    17be:	fec42783          	lw	a5,-20(s0)
    17c2:	07c1                	addi	a5,a5,16
    17c4:	fef42623          	sw	a5,-20(s0)
    17c8:	a031                	j	17d4 <USART_ITConfig+0x8c>
E:\GITKraken\Dual-core_Communication_Demo\Dual-core_Communication_Demo\MASTER\obj/../Libraries/wch_libraries/Peripheral/ch32v10x_usart.c:280
  }
  else 
  {
    usartxbase += 0x14; 
    17ca:	fec42783          	lw	a5,-20(s0)
    17ce:	07d1                	addi	a5,a5,20
    17d0:	fef42623          	sw	a5,-20(s0)
E:\GITKraken\Dual-core_Communication_Demo\Dual-core_Communication_Demo\MASTER\obj/../Libraries/wch_libraries/Peripheral/ch32v10x_usart.c:283
  }
	
  if (NewState != DISABLE)
    17d4:	fd442783          	lw	a5,-44(s0)
    17d8:	cb99                	beqz	a5,17ee <USART_ITConfig+0xa6>
E:\GITKraken\Dual-core_Communication_Demo\Dual-core_Communication_Demo\MASTER\obj/../Libraries/wch_libraries/Peripheral/ch32v10x_usart.c:285
  {
    *(__IO uint32_t*)usartxbase  |= itmask;
    17da:	fec42783          	lw	a5,-20(s0)
    17de:	4394                	lw	a3,0(a5)
    17e0:	fec42783          	lw	a5,-20(s0)
    17e4:	fe042703          	lw	a4,-32(s0)
    17e8:	8f55                	or	a4,a4,a3
    17ea:	c398                	sw	a4,0(a5)
E:\GITKraken\Dual-core_Communication_Demo\Dual-core_Communication_Demo\MASTER\obj/../Libraries/wch_libraries/Peripheral/ch32v10x_usart.c:291
  }
  else
  {
    *(__IO uint32_t*)usartxbase &= ~itmask;
  }
}
    17ec:	a821                	j	1804 <USART_ITConfig+0xbc>
E:\GITKraken\Dual-core_Communication_Demo\Dual-core_Communication_Demo\MASTER\obj/../Libraries/wch_libraries/Peripheral/ch32v10x_usart.c:289
    *(__IO uint32_t*)usartxbase &= ~itmask;
    17ee:	fec42783          	lw	a5,-20(s0)
    17f2:	4394                	lw	a3,0(a5)
    17f4:	fe042783          	lw	a5,-32(s0)
    17f8:	fff7c713          	not	a4,a5
    17fc:	fec42783          	lw	a5,-20(s0)
    1800:	8f75                	and	a4,a4,a3
    1802:	c398                	sw	a4,0(a5)
E:\GITKraken\Dual-core_Communication_Demo\Dual-core_Communication_Demo\MASTER\obj/../Libraries/wch_libraries/Peripheral/ch32v10x_usart.c:291
}
    1804:	0001                	nop
    1806:	5432                	lw	s0,44(sp)
    1808:	6145                	addi	sp,sp,48
    180a:	8082                	ret

0000180c <USART_SendData>:
USART_SendData():
E:\GITKraken\Dual-core_Communication_Demo\Dual-core_Communication_Demo\MASTER\obj/../Libraries/wch_libraries/Peripheral/ch32v10x_usart.c:404
* Input          : USARTx: where x can be 1, 2, 3 to select the USART peripheral.
*                  Data: the data to transmit..
* Return         : None
*******************************************************************************/
void USART_SendData(USART_TypeDef* USARTx, uint16_t Data)
{
    180c:	1101                	addi	sp,sp,-32
    180e:	ce22                	sw	s0,28(sp)
    1810:	1000                	addi	s0,sp,32
    1812:	fea42623          	sw	a0,-20(s0)
    1816:	87ae                	mv	a5,a1
    1818:	fef41523          	sh	a5,-22(s0)
E:\GITKraken\Dual-core_Communication_Demo\Dual-core_Communication_Demo\MASTER\obj/../Libraries/wch_libraries/Peripheral/ch32v10x_usart.c:405
  USARTx->DATAR = (Data & (uint16_t)0x01FF);
    181c:	fea45783          	lhu	a5,-22(s0)
    1820:	1ff7f793          	andi	a5,a5,511
    1824:	01079713          	slli	a4,a5,0x10
    1828:	8341                	srli	a4,a4,0x10
    182a:	fec42783          	lw	a5,-20(s0)
    182e:	00e79223          	sh	a4,4(a5)
E:\GITKraken\Dual-core_Communication_Demo\Dual-core_Communication_Demo\MASTER\obj/../Libraries/wch_libraries/Peripheral/ch32v10x_usart.c:406
}
    1832:	0001                	nop
    1834:	4472                	lw	s0,28(sp)
    1836:	6105                	addi	sp,sp,32
    1838:	8082                	ret

0000183a <USART_ReceiveData>:
USART_ReceiveData():
E:\GITKraken\Dual-core_Communication_Demo\Dual-core_Communication_Demo\MASTER\obj/../Libraries/wch_libraries/Peripheral/ch32v10x_usart.c:415
* Description    : Returns the most recent received data by the USARTx peripheral.
* Input          : USARTx: where x can be 1, 2, 3 to select the USART peripheral.
* Return         : The received data.
*******************************************************************************/
uint16_t USART_ReceiveData(USART_TypeDef* USARTx)
{
    183a:	1101                	addi	sp,sp,-32
    183c:	ce22                	sw	s0,28(sp)
    183e:	1000                	addi	s0,sp,32
    1840:	fea42623          	sw	a0,-20(s0)
E:\GITKraken\Dual-core_Communication_Demo\Dual-core_Communication_Demo\MASTER\obj/../Libraries/wch_libraries/Peripheral/ch32v10x_usart.c:416
  return (uint16_t)(USARTx->DATAR & (uint16_t)0x01FF);
    1844:	fec42783          	lw	a5,-20(s0)
    1848:	0047d783          	lhu	a5,4(a5)
    184c:	07c2                	slli	a5,a5,0x10
    184e:	83c1                	srli	a5,a5,0x10
    1850:	1ff7f793          	andi	a5,a5,511
    1854:	07c2                	slli	a5,a5,0x10
    1856:	83c1                	srli	a5,a5,0x10
E:\GITKraken\Dual-core_Communication_Demo\Dual-core_Communication_Demo\MASTER\obj/../Libraries/wch_libraries/Peripheral/ch32v10x_usart.c:417
}
    1858:	853e                	mv	a0,a5
    185a:	4472                	lw	s0,28(sp)
    185c:	6105                	addi	sp,sp,32
    185e:	8082                	ret

00001860 <USART_GetFlagStatus>:
USART_GetFlagStatus():
E:\GITKraken\Dual-core_Communication_Demo\Dual-core_Communication_Demo\MASTER\obj/../Libraries/wch_libraries/Peripheral/ch32v10x_usart.c:603
*                    USART_FLAG_FE: Framing Error flag.
*                    USART_FLAG_PE: Parity Error flag.
* Return         : bitstatus: SET or RESET.
*******************************************************************************/
FlagStatus USART_GetFlagStatus(USART_TypeDef* USARTx, uint16_t USART_FLAG)
{
    1860:	7179                	addi	sp,sp,-48
    1862:	d622                	sw	s0,44(sp)
    1864:	1800                	addi	s0,sp,48
    1866:	fca42e23          	sw	a0,-36(s0)
    186a:	87ae                	mv	a5,a1
    186c:	fcf41d23          	sh	a5,-38(s0)
E:\GITKraken\Dual-core_Communication_Demo\Dual-core_Communication_Demo\MASTER\obj/../Libraries/wch_libraries/Peripheral/ch32v10x_usart.c:604
  FlagStatus bitstatus = RESET;
    1870:	fe042623          	sw	zero,-20(s0)
E:\GITKraken\Dual-core_Communication_Demo\Dual-core_Communication_Demo\MASTER\obj/../Libraries/wch_libraries/Peripheral/ch32v10x_usart.c:610

  if (USART_FLAG == USART_FLAG_CTS)
  {
  }  
  
  if ((USARTx->STATR & USART_FLAG) != (uint16_t)RESET)
    1874:	fdc42783          	lw	a5,-36(s0)
    1878:	0007d783          	lhu	a5,0(a5)
    187c:	01079713          	slli	a4,a5,0x10
    1880:	8341                	srli	a4,a4,0x10
    1882:	fda45783          	lhu	a5,-38(s0)
    1886:	8ff9                	and	a5,a5,a4
    1888:	07c2                	slli	a5,a5,0x10
    188a:	83c1                	srli	a5,a5,0x10
    188c:	c789                	beqz	a5,1896 <USART_GetFlagStatus+0x36>
E:\GITKraken\Dual-core_Communication_Demo\Dual-core_Communication_Demo\MASTER\obj/../Libraries/wch_libraries/Peripheral/ch32v10x_usart.c:612
  {
    bitstatus = SET;
    188e:	4785                	li	a5,1
    1890:	fef42623          	sw	a5,-20(s0)
    1894:	a019                	j	189a <USART_GetFlagStatus+0x3a>
E:\GITKraken\Dual-core_Communication_Demo\Dual-core_Communication_Demo\MASTER\obj/../Libraries/wch_libraries/Peripheral/ch32v10x_usart.c:616
  }
  else
  {
    bitstatus = RESET;
    1896:	fe042623          	sw	zero,-20(s0)
E:\GITKraken\Dual-core_Communication_Demo\Dual-core_Communication_Demo\MASTER\obj/../Libraries/wch_libraries/Peripheral/ch32v10x_usart.c:618
  }
  return bitstatus;
    189a:	fec42783          	lw	a5,-20(s0)
E:\GITKraken\Dual-core_Communication_Demo\Dual-core_Communication_Demo\MASTER\obj/../Libraries/wch_libraries/Peripheral/ch32v10x_usart.c:619
}
    189e:	853e                	mv	a0,a5
    18a0:	5432                	lw	s0,44(sp)
    18a2:	6145                	addi	sp,sp,48
    18a4:	8082                	ret

000018a6 <USART_GetITStatus>:
USART_GetITStatus():
E:\GITKraken\Dual-core_Communication_Demo\Dual-core_Communication_Demo\MASTER\obj/../Libraries/wch_libraries/Peripheral/ch32v10x_usart.c:660
*                    USART_IT_FE: Framing Error interrupt.
*                    USART_IT_PE: Parity Error interrupt.
* Return         : bitstatus: SET or RESET.
*******************************************************************************/
ITStatus USART_GetITStatus(USART_TypeDef* USARTx, uint16_t USART_IT)
{
    18a6:	7179                	addi	sp,sp,-48
    18a8:	d622                	sw	s0,44(sp)
    18aa:	1800                	addi	s0,sp,48
    18ac:	fca42e23          	sw	a0,-36(s0)
    18b0:	87ae                	mv	a5,a1
    18b2:	fcf41d23          	sh	a5,-38(s0)
E:\GITKraken\Dual-core_Communication_Demo\Dual-core_Communication_Demo\MASTER\obj/../Libraries/wch_libraries/Peripheral/ch32v10x_usart.c:661
  uint32_t bitpos = 0x00, itmask = 0x00, usartreg = 0x00;
    18b6:	fe042223          	sw	zero,-28(s0)
    18ba:	fe042623          	sw	zero,-20(s0)
    18be:	fe042023          	sw	zero,-32(s0)
E:\GITKraken\Dual-core_Communication_Demo\Dual-core_Communication_Demo\MASTER\obj/../Libraries/wch_libraries/Peripheral/ch32v10x_usart.c:662
  ITStatus bitstatus = RESET;
    18c2:	fe042423          	sw	zero,-24(s0)
E:\GITKraken\Dual-core_Communication_Demo\Dual-core_Communication_Demo\MASTER\obj/../Libraries/wch_libraries/Peripheral/ch32v10x_usart.c:668

  if (USART_IT == USART_IT_CTS)
  {
  }   
  
  usartreg = (((uint8_t)USART_IT) >> 0x05);
    18c6:	fda45783          	lhu	a5,-38(s0)
    18ca:	0ff7f793          	andi	a5,a5,255
    18ce:	8395                	srli	a5,a5,0x5
    18d0:	0ff7f793          	andi	a5,a5,255
    18d4:	fef42023          	sw	a5,-32(s0)
E:\GITKraken\Dual-core_Communication_Demo\Dual-core_Communication_Demo\MASTER\obj/../Libraries/wch_libraries/Peripheral/ch32v10x_usart.c:669
  itmask = USART_IT & IT_Mask;
    18d8:	fda45783          	lhu	a5,-38(s0)
    18dc:	8bfd                	andi	a5,a5,31
    18de:	fef42623          	sw	a5,-20(s0)
E:\GITKraken\Dual-core_Communication_Demo\Dual-core_Communication_Demo\MASTER\obj/../Libraries/wch_libraries/Peripheral/ch32v10x_usart.c:670
  itmask = (uint32_t)0x01 << itmask;
    18e2:	fec42783          	lw	a5,-20(s0)
    18e6:	4705                	li	a4,1
    18e8:	00f717b3          	sll	a5,a4,a5
    18ec:	fef42623          	sw	a5,-20(s0)
E:\GITKraken\Dual-core_Communication_Demo\Dual-core_Communication_Demo\MASTER\obj/../Libraries/wch_libraries/Peripheral/ch32v10x_usart.c:672
  
  if (usartreg == 0x01) 
    18f0:	fe042703          	lw	a4,-32(s0)
    18f4:	4785                	li	a5,1
    18f6:	00f71f63          	bne	a4,a5,1914 <USART_GetITStatus+0x6e>
E:\GITKraken\Dual-core_Communication_Demo\Dual-core_Communication_Demo\MASTER\obj/../Libraries/wch_libraries/Peripheral/ch32v10x_usart.c:674
  {
    itmask &= USARTx->CTLR1;
    18fa:	fdc42783          	lw	a5,-36(s0)
    18fe:	00c7d783          	lhu	a5,12(a5)
    1902:	07c2                	slli	a5,a5,0x10
    1904:	83c1                	srli	a5,a5,0x10
    1906:	873e                	mv	a4,a5
    1908:	fec42783          	lw	a5,-20(s0)
    190c:	8ff9                	and	a5,a5,a4
    190e:	fef42623          	sw	a5,-20(s0)
    1912:	a83d                	j	1950 <USART_GetITStatus+0xaa>
E:\GITKraken\Dual-core_Communication_Demo\Dual-core_Communication_Demo\MASTER\obj/../Libraries/wch_libraries/Peripheral/ch32v10x_usart.c:676
  }
  else if (usartreg == 0x02) 
    1914:	fe042703          	lw	a4,-32(s0)
    1918:	4789                	li	a5,2
    191a:	00f71f63          	bne	a4,a5,1938 <USART_GetITStatus+0x92>
E:\GITKraken\Dual-core_Communication_Demo\Dual-core_Communication_Demo\MASTER\obj/../Libraries/wch_libraries/Peripheral/ch32v10x_usart.c:678
  {
    itmask &= USARTx->CTLR2;
    191e:	fdc42783          	lw	a5,-36(s0)
    1922:	0107d783          	lhu	a5,16(a5)
    1926:	07c2                	slli	a5,a5,0x10
    1928:	83c1                	srli	a5,a5,0x10
    192a:	873e                	mv	a4,a5
    192c:	fec42783          	lw	a5,-20(s0)
    1930:	8ff9                	and	a5,a5,a4
    1932:	fef42623          	sw	a5,-20(s0)
    1936:	a829                	j	1950 <USART_GetITStatus+0xaa>
E:\GITKraken\Dual-core_Communication_Demo\Dual-core_Communication_Demo\MASTER\obj/../Libraries/wch_libraries/Peripheral/ch32v10x_usart.c:682
  }
  else 
  {
    itmask &= USARTx->CTLR3;
    1938:	fdc42783          	lw	a5,-36(s0)
    193c:	0147d783          	lhu	a5,20(a5)
    1940:	07c2                	slli	a5,a5,0x10
    1942:	83c1                	srli	a5,a5,0x10
    1944:	873e                	mv	a4,a5
    1946:	fec42783          	lw	a5,-20(s0)
    194a:	8ff9                	and	a5,a5,a4
    194c:	fef42623          	sw	a5,-20(s0)
E:\GITKraken\Dual-core_Communication_Demo\Dual-core_Communication_Demo\MASTER\obj/../Libraries/wch_libraries/Peripheral/ch32v10x_usart.c:685
  }
  
  bitpos = USART_IT >> 0x08;
    1950:	fda45783          	lhu	a5,-38(s0)
    1954:	83a1                	srli	a5,a5,0x8
    1956:	07c2                	slli	a5,a5,0x10
    1958:	83c1                	srli	a5,a5,0x10
    195a:	fef42223          	sw	a5,-28(s0)
E:\GITKraken\Dual-core_Communication_Demo\Dual-core_Communication_Demo\MASTER\obj/../Libraries/wch_libraries/Peripheral/ch32v10x_usart.c:686
  bitpos = (uint32_t)0x01 << bitpos;
    195e:	fe442783          	lw	a5,-28(s0)
    1962:	4705                	li	a4,1
    1964:	00f717b3          	sll	a5,a4,a5
    1968:	fef42223          	sw	a5,-28(s0)
E:\GITKraken\Dual-core_Communication_Demo\Dual-core_Communication_Demo\MASTER\obj/../Libraries/wch_libraries/Peripheral/ch32v10x_usart.c:687
  bitpos &= USARTx->STATR;
    196c:	fdc42783          	lw	a5,-36(s0)
    1970:	0007d783          	lhu	a5,0(a5)
    1974:	07c2                	slli	a5,a5,0x10
    1976:	83c1                	srli	a5,a5,0x10
    1978:	873e                	mv	a4,a5
    197a:	fe442783          	lw	a5,-28(s0)
    197e:	8ff9                	and	a5,a5,a4
    1980:	fef42223          	sw	a5,-28(s0)
E:\GITKraken\Dual-core_Communication_Demo\Dual-core_Communication_Demo\MASTER\obj/../Libraries/wch_libraries/Peripheral/ch32v10x_usart.c:689
	
  if ((itmask != (uint16_t)RESET)&&(bitpos != (uint16_t)RESET))
    1984:	fec42783          	lw	a5,-20(s0)
    1988:	cb81                	beqz	a5,1998 <USART_GetITStatus+0xf2>
E:\GITKraken\Dual-core_Communication_Demo\Dual-core_Communication_Demo\MASTER\obj/../Libraries/wch_libraries/Peripheral/ch32v10x_usart.c:689 (discriminator 1)
    198a:	fe442783          	lw	a5,-28(s0)
    198e:	c789                	beqz	a5,1998 <USART_GetITStatus+0xf2>
E:\GITKraken\Dual-core_Communication_Demo\Dual-core_Communication_Demo\MASTER\obj/../Libraries/wch_libraries/Peripheral/ch32v10x_usart.c:691
  {
    bitstatus = SET;
    1990:	4785                	li	a5,1
    1992:	fef42423          	sw	a5,-24(s0)
    1996:	a019                	j	199c <USART_GetITStatus+0xf6>
E:\GITKraken\Dual-core_Communication_Demo\Dual-core_Communication_Demo\MASTER\obj/../Libraries/wch_libraries/Peripheral/ch32v10x_usart.c:695
  }
  else
  {
    bitstatus = RESET;
    1998:	fe042423          	sw	zero,-24(s0)
E:\GITKraken\Dual-core_Communication_Demo\Dual-core_Communication_Demo\MASTER\obj/../Libraries/wch_libraries/Peripheral/ch32v10x_usart.c:698
  }
  
  return bitstatus;  
    199c:	fe842783          	lw	a5,-24(s0)
E:\GITKraken\Dual-core_Communication_Demo\Dual-core_Communication_Demo\MASTER\obj/../Libraries/wch_libraries/Peripheral/ch32v10x_usart.c:699
}
    19a0:	853e                	mv	a0,a5
    19a2:	5432                	lw	s0,44(sp)
    19a4:	6145                	addi	sp,sp,48
    19a6:	8082                	ret

000019a8 <USART_ClearITPendingBit>:
USART_ClearITPendingBit():
E:\GITKraken\Dual-core_Communication_Demo\Dual-core_Communication_Demo\MASTER\obj/../Libraries/wch_libraries/Peripheral/ch32v10x_usart.c:713
*                    USART_IT_TC:   Transmission complete interrupt.
*                    USART_IT_RXNE: Receive Data register not empty interrupt.
* Return         : None
*******************************************************************************/
void USART_ClearITPendingBit(USART_TypeDef* USARTx, uint16_t USART_IT)
{
    19a8:	7179                	addi	sp,sp,-48
    19aa:	d622                	sw	s0,44(sp)
    19ac:	1800                	addi	s0,sp,48
    19ae:	fca42e23          	sw	a0,-36(s0)
    19b2:	87ae                	mv	a5,a1
    19b4:	fcf41d23          	sh	a5,-38(s0)
E:\GITKraken\Dual-core_Communication_Demo\Dual-core_Communication_Demo\MASTER\obj/../Libraries/wch_libraries/Peripheral/ch32v10x_usart.c:714
  uint16_t bitpos = 0x00, itmask = 0x00;
    19b8:	fe041723          	sh	zero,-18(s0)
    19bc:	fe041623          	sh	zero,-20(s0)
E:\GITKraken\Dual-core_Communication_Demo\Dual-core_Communication_Demo\MASTER\obj/../Libraries/wch_libraries/Peripheral/ch32v10x_usart.c:720

  if (USART_IT == USART_IT_CTS)
  {
  }   
  
  bitpos = USART_IT >> 0x08;
    19c0:	fda45783          	lhu	a5,-38(s0)
    19c4:	83a1                	srli	a5,a5,0x8
    19c6:	fef41723          	sh	a5,-18(s0)
E:\GITKraken\Dual-core_Communication_Demo\Dual-core_Communication_Demo\MASTER\obj/../Libraries/wch_libraries/Peripheral/ch32v10x_usart.c:721
  itmask = ((uint16_t)0x01 << (uint16_t)bitpos);
    19ca:	fee45783          	lhu	a5,-18(s0)
    19ce:	4705                	li	a4,1
    19d0:	00f717b3          	sll	a5,a4,a5
    19d4:	fef41623          	sh	a5,-20(s0)
E:\GITKraken\Dual-core_Communication_Demo\Dual-core_Communication_Demo\MASTER\obj/../Libraries/wch_libraries/Peripheral/ch32v10x_usart.c:722
  USARTx->STATR = (uint16_t)~itmask;
    19d8:	fec45783          	lhu	a5,-20(s0)
    19dc:	fff7c793          	not	a5,a5
    19e0:	01079713          	slli	a4,a5,0x10
    19e4:	8341                	srli	a4,a4,0x10
    19e6:	fdc42783          	lw	a5,-36(s0)
    19ea:	00e79023          	sh	a4,0(a5)
E:\GITKraken\Dual-core_Communication_Demo\Dual-core_Communication_Demo\MASTER\obj/../Libraries/wch_libraries/Peripheral/ch32v10x_usart.c:723
}
    19ee:	0001                	nop
    19f0:	5432                	lw	s0,44(sp)
    19f2:	6145                	addi	sp,sp,48
    19f4:	8082                	ret

000019f6 <ips114_writeIndex>:
ips114_writeIndex():
E:\GITKraken\Dual-core_Communication_Demo\Dual-core_Communication_Demo\MASTER\obj/../Libraries/seekfree_peripheral/SEEKFREE_IPS114_SPI.c:50
//  @return     				
//  @since      v1.0
//  Sample usage:               
//-------------------------------------------------------------------------------------------------------------------
void ips114_writeIndex(uint8 dat)			//写命令
{	
    19f6:	1101                	addi	sp,sp,-32
    19f8:	ce06                	sw	ra,28(sp)
    19fa:	cc22                	sw	s0,24(sp)
    19fc:	1000                	addi	s0,sp,32
    19fe:	87aa                	mv	a5,a0
    1a00:	fef407a3          	sb	a5,-17(s0)
E:\GITKraken\Dual-core_Communication_Demo\Dual-core_Communication_Demo\MASTER\obj/../Libraries/seekfree_peripheral/SEEKFREE_IPS114_SPI.c:51
    IPS114_CS(0);
    1a04:	6791                	lui	a5,0x4
    1a06:	6d878793          	addi	a5,a5,1752 # 46d8 <GPION>
    1a0a:	479c                	lw	a5,8(a5)
    1a0c:	873e                	mv	a4,a5
    1a0e:	67a1                	lui	a5,0x8
    1a10:	cb5c                	sw	a5,20(a4)
E:\GITKraken\Dual-core_Communication_Demo\Dual-core_Communication_Demo\MASTER\obj/../Libraries/seekfree_peripheral/SEEKFREE_IPS114_SPI.c:52
    IPS114_DC(0);
    1a12:	6791                	lui	a5,0x4
    1a14:	6d878793          	addi	a5,a5,1752 # 46d8 <GPION>
    1a18:	479c                	lw	a5,8(a5)
    1a1a:	873e                	mv	a4,a5
    1a1c:	6791                	lui	a5,0x4
    1a1e:	cb5c                	sw	a5,20(a4)
E:\GITKraken\Dual-core_Communication_Demo\Dual-core_Communication_Demo\MASTER\obj/../Libraries/seekfree_peripheral/SEEKFREE_IPS114_SPI.c:53
    spi_mosi(IPS114_SPIN, &dat, NULL, 1);
    1a20:	fef40793          	addi	a5,s0,-17
    1a24:	4685                	li	a3,1
    1a26:	4601                	li	a2,0
    1a28:	85be                	mv	a1,a5
    1a2a:	4501                	li	a0,0
    1a2c:	64d000ef          	jal	ra,2878 <spi_mosi>
E:\GITKraken\Dual-core_Communication_Demo\Dual-core_Communication_Demo\MASTER\obj/../Libraries/seekfree_peripheral/SEEKFREE_IPS114_SPI.c:54
    IPS114_CS(1);
    1a30:	6791                	lui	a5,0x4
    1a32:	6d878793          	addi	a5,a5,1752 # 46d8 <GPION>
    1a36:	479c                	lw	a5,8(a5)
    1a38:	873e                	mv	a4,a5
    1a3a:	67a1                	lui	a5,0x8
    1a3c:	cb1c                	sw	a5,16(a4)
E:\GITKraken\Dual-core_Communication_Demo\Dual-core_Communication_Demo\MASTER\obj/../Libraries/seekfree_peripheral/SEEKFREE_IPS114_SPI.c:55
}
    1a3e:	0001                	nop
    1a40:	40f2                	lw	ra,28(sp)
    1a42:	4462                	lw	s0,24(sp)
    1a44:	6105                	addi	sp,sp,32
    1a46:	8082                	ret

00001a48 <ips114_writeData>:
ips114_writeData():
E:\GITKraken\Dual-core_Communication_Demo\Dual-core_Communication_Demo\MASTER\obj/../Libraries/seekfree_peripheral/SEEKFREE_IPS114_SPI.c:65
//  @return     				
//  @since      v1.0
//  Sample usage:               
//-------------------------------------------------------------------------------------------------------------------
void ips114_writeData(uint8 dat)			//写数据
{
    1a48:	1101                	addi	sp,sp,-32
    1a4a:	ce06                	sw	ra,28(sp)
    1a4c:	cc22                	sw	s0,24(sp)
    1a4e:	1000                	addi	s0,sp,32
    1a50:	87aa                	mv	a5,a0
    1a52:	fef407a3          	sb	a5,-17(s0)
E:\GITKraken\Dual-core_Communication_Demo\Dual-core_Communication_Demo\MASTER\obj/../Libraries/seekfree_peripheral/SEEKFREE_IPS114_SPI.c:66
    IPS114_CS(0);
    1a56:	6791                	lui	a5,0x4
    1a58:	6d878793          	addi	a5,a5,1752 # 46d8 <GPION>
    1a5c:	479c                	lw	a5,8(a5)
    1a5e:	873e                	mv	a4,a5
    1a60:	67a1                	lui	a5,0x8
    1a62:	cb5c                	sw	a5,20(a4)
E:\GITKraken\Dual-core_Communication_Demo\Dual-core_Communication_Demo\MASTER\obj/../Libraries/seekfree_peripheral/SEEKFREE_IPS114_SPI.c:67
    IPS114_DC(1);
    1a64:	6791                	lui	a5,0x4
    1a66:	6d878793          	addi	a5,a5,1752 # 46d8 <GPION>
    1a6a:	479c                	lw	a5,8(a5)
    1a6c:	873e                	mv	a4,a5
    1a6e:	6791                	lui	a5,0x4
    1a70:	cb1c                	sw	a5,16(a4)
E:\GITKraken\Dual-core_Communication_Demo\Dual-core_Communication_Demo\MASTER\obj/../Libraries/seekfree_peripheral/SEEKFREE_IPS114_SPI.c:68
    spi_mosi(IPS114_SPIN, &dat, NULL, 1);
    1a72:	fef40793          	addi	a5,s0,-17
    1a76:	4685                	li	a3,1
    1a78:	4601                	li	a2,0
    1a7a:	85be                	mv	a1,a5
    1a7c:	4501                	li	a0,0
    1a7e:	5fb000ef          	jal	ra,2878 <spi_mosi>
E:\GITKraken\Dual-core_Communication_Demo\Dual-core_Communication_Demo\MASTER\obj/../Libraries/seekfree_peripheral/SEEKFREE_IPS114_SPI.c:69
    IPS114_CS(1);
    1a82:	6791                	lui	a5,0x4
    1a84:	6d878793          	addi	a5,a5,1752 # 46d8 <GPION>
    1a88:	479c                	lw	a5,8(a5)
    1a8a:	873e                	mv	a4,a5
    1a8c:	67a1                	lui	a5,0x8
    1a8e:	cb1c                	sw	a5,16(a4)
E:\GITKraken\Dual-core_Communication_Demo\Dual-core_Communication_Demo\MASTER\obj/../Libraries/seekfree_peripheral/SEEKFREE_IPS114_SPI.c:70
}
    1a90:	0001                	nop
    1a92:	40f2                	lw	ra,28(sp)
    1a94:	4462                	lw	s0,24(sp)
    1a96:	6105                	addi	sp,sp,32
    1a98:	8082                	ret

00001a9a <ips114_writedata_16bit>:
ips114_writedata_16bit():
E:\GITKraken\Dual-core_Communication_Demo\Dual-core_Communication_Demo\MASTER\obj/../Libraries/seekfree_peripheral/SEEKFREE_IPS114_SPI.c:80
//  @return     				
//  @since      v1.0
//  Sample usage:               
//-------------------------------------------------------------------------------------------------------------------
void ips114_writedata_16bit(uint16 dat)	//向液晶屏写一个16位数据
{
    1a9a:	7179                	addi	sp,sp,-48
    1a9c:	d606                	sw	ra,44(sp)
    1a9e:	d422                	sw	s0,40(sp)
    1aa0:	1800                	addi	s0,sp,48
    1aa2:	87aa                	mv	a5,a0
    1aa4:	fcf41f23          	sh	a5,-34(s0)
E:\GITKraken\Dual-core_Communication_Demo\Dual-core_Communication_Demo\MASTER\obj/../Libraries/seekfree_peripheral/SEEKFREE_IPS114_SPI.c:82
    uint8 dat1[2];
    IPS114_CS(0);
    1aa8:	6791                	lui	a5,0x4
    1aaa:	6d878793          	addi	a5,a5,1752 # 46d8 <GPION>
    1aae:	479c                	lw	a5,8(a5)
    1ab0:	873e                	mv	a4,a5
    1ab2:	67a1                	lui	a5,0x8
    1ab4:	cb5c                	sw	a5,20(a4)
E:\GITKraken\Dual-core_Communication_Demo\Dual-core_Communication_Demo\MASTER\obj/../Libraries/seekfree_peripheral/SEEKFREE_IPS114_SPI.c:83
    dat1[0] = dat >> 8;
    1ab6:	fde45783          	lhu	a5,-34(s0)
    1aba:	83a1                	srli	a5,a5,0x8
    1abc:	07c2                	slli	a5,a5,0x10
    1abe:	83c1                	srli	a5,a5,0x10
    1ac0:	0ff7f793          	andi	a5,a5,255
    1ac4:	fef40623          	sb	a5,-20(s0)
E:\GITKraken\Dual-core_Communication_Demo\Dual-core_Communication_Demo\MASTER\obj/../Libraries/seekfree_peripheral/SEEKFREE_IPS114_SPI.c:84
    dat1[1] = (uint8)dat;
    1ac8:	fde45783          	lhu	a5,-34(s0)
    1acc:	0ff7f793          	andi	a5,a5,255
    1ad0:	fef406a3          	sb	a5,-19(s0)
E:\GITKraken\Dual-core_Communication_Demo\Dual-core_Communication_Demo\MASTER\obj/../Libraries/seekfree_peripheral/SEEKFREE_IPS114_SPI.c:86
    
    IPS114_DC(1);
    1ad4:	6791                	lui	a5,0x4
    1ad6:	6d878793          	addi	a5,a5,1752 # 46d8 <GPION>
    1ada:	479c                	lw	a5,8(a5)
    1adc:	873e                	mv	a4,a5
    1ade:	6791                	lui	a5,0x4
    1ae0:	cb1c                	sw	a5,16(a4)
E:\GITKraken\Dual-core_Communication_Demo\Dual-core_Communication_Demo\MASTER\obj/../Libraries/seekfree_peripheral/SEEKFREE_IPS114_SPI.c:87
    spi_mosi(IPS114_SPIN, dat1, NULL, 2); 	//写入数据  高位在前  低位在后
    1ae2:	fec40793          	addi	a5,s0,-20
    1ae6:	4689                	li	a3,2
    1ae8:	4601                	li	a2,0
    1aea:	85be                	mv	a1,a5
    1aec:	4501                	li	a0,0
    1aee:	58b000ef          	jal	ra,2878 <spi_mosi>
E:\GITKraken\Dual-core_Communication_Demo\Dual-core_Communication_Demo\MASTER\obj/../Libraries/seekfree_peripheral/SEEKFREE_IPS114_SPI.c:88
    IPS114_CS(1);
    1af2:	6791                	lui	a5,0x4
    1af4:	6d878793          	addi	a5,a5,1752 # 46d8 <GPION>
    1af8:	479c                	lw	a5,8(a5)
    1afa:	873e                	mv	a4,a5
    1afc:	67a1                	lui	a5,0x8
    1afe:	cb1c                	sw	a5,16(a4)
E:\GITKraken\Dual-core_Communication_Demo\Dual-core_Communication_Demo\MASTER\obj/../Libraries/seekfree_peripheral/SEEKFREE_IPS114_SPI.c:89
}
    1b00:	0001                	nop
    1b02:	50b2                	lw	ra,44(sp)
    1b04:	5422                	lw	s0,40(sp)
    1b06:	6145                	addi	sp,sp,48
    1b08:	8082                	ret

00001b0a <ips114_init>:
ips114_init():
E:\GITKraken\Dual-core_Communication_Demo\Dual-core_Communication_Demo\MASTER\obj/../Libraries/seekfree_peripheral/SEEKFREE_IPS114_SPI.c:98
//  @return     void
//  @since      v1.0
//  Sample usage:               
//-------------------------------------------------------------------------------------------------------------------
void ips114_init(void)
{
    1b0a:	7179                	addi	sp,sp,-48
    1b0c:	d606                	sw	ra,44(sp)
    1b0e:	d422                	sw	s0,40(sp)
    1b10:	d24a                	sw	s2,36(sp)
    1b12:	d04e                	sw	s3,32(sp)
    1b14:	ce52                	sw	s4,28(sp)
    1b16:	cc56                	sw	s5,24(sp)
    1b18:	ca5a                	sw	s6,20(sp)
    1b1a:	c85e                	sw	s7,16(sp)
    1b1c:	c662                	sw	s8,12(sp)
    1b1e:	c466                	sw	s9,8(sp)
    1b20:	1800                	addi	s0,sp,48
E:\GITKraken\Dual-core_Communication_Demo\Dual-core_Communication_Demo\MASTER\obj/../Libraries/seekfree_peripheral/SEEKFREE_IPS114_SPI.c:99
    spi_init(IPS114_SPIN, IPS114_SCL_PIN, IPS114_SDA_PIN, IPS114_SDA_IN_PIN, IPS114_CS_PIN, 0, FPCLK_DIV_2);//硬件SPI初始化
    1b22:	4801                	li	a6,0
    1b24:	4781                	li	a5,0
    1b26:	04f00713          	li	a4,79
    1b2a:	02300693          	li	a3,35
    1b2e:	4605                	li	a2,1
    1b30:	4581                	li	a1,0
    1b32:	4501                	li	a0,0
    1b34:	411000ef          	jal	ra,2744 <spi_init>
E:\GITKraken\Dual-core_Communication_Demo\Dual-core_Communication_Demo\MASTER\obj/../Libraries/seekfree_peripheral/SEEKFREE_IPS114_SPI.c:101

    gpio_init(IPS114_BL_PIN, GPO, 1, GPIO_PIN_CONFIG);
    1b38:	31000693          	li	a3,784
    1b3c:	4605                	li	a2,1
    1b3e:	4585                	li	a1,1
    1b40:	08000513          	li	a0,128
    1b44:	70a000ef          	jal	ra,224e <gpio_init>
E:\GITKraken\Dual-core_Communication_Demo\Dual-core_Communication_Demo\MASTER\obj/../Libraries/seekfree_peripheral/SEEKFREE_IPS114_SPI.c:102
    gpio_init(IPS114_DC_PIN, GPO, 0, GPIO_PIN_CONFIG);
    1b48:	31000693          	li	a3,784
    1b4c:	4601                	li	a2,0
    1b4e:	4585                	li	a1,1
    1b50:	04e00513          	li	a0,78
    1b54:	6fa000ef          	jal	ra,224e <gpio_init>
E:\GITKraken\Dual-core_Communication_Demo\Dual-core_Communication_Demo\MASTER\obj/../Libraries/seekfree_peripheral/SEEKFREE_IPS114_SPI.c:103
    gpio_init(IPS114_REST_PIN, GPO, 0, GPIO_PIN_CONFIG);
    1b58:	31000693          	li	a3,784
    1b5c:	4601                	li	a2,0
    1b5e:	4585                	li	a1,1
    1b60:	04d00513          	li	a0,77
    1b64:	6ea000ef          	jal	ra,224e <gpio_init>
E:\GITKraken\Dual-core_Communication_Demo\Dual-core_Communication_Demo\MASTER\obj/../Libraries/seekfree_peripheral/SEEKFREE_IPS114_SPI.c:105

    IPS114_REST(0);
    1b68:	6791                	lui	a5,0x4
    1b6a:	6d878793          	addi	a5,a5,1752 # 46d8 <GPION>
    1b6e:	479c                	lw	a5,8(a5)
    1b70:	873e                	mv	a4,a5
    1b72:	6789                	lui	a5,0x2
    1b74:	cb5c                	sw	a5,20(a4)
E:\GITKraken\Dual-core_Communication_Demo\Dual-core_Communication_Demo\MASTER\obj/../Libraries/seekfree_peripheral/SEEKFREE_IPS114_SPI.c:106
    systick_delay_ms(200);
    1b76:	8341a703          	lw	a4,-1996(gp) # 200000a4 <sys_clk>
    1b7a:	6789                	lui	a5,0x2
    1b7c:	f4078793          	addi	a5,a5,-192 # 1f40 <ips114_showint16+0x10>
    1b80:	02f75733          	divu	a4,a4,a5
    1b84:	0c800793          	li	a5,200
    1b88:	02f707b3          	mul	a5,a4,a5
    1b8c:	8c3e                	mv	s8,a5
    1b8e:	4c81                	li	s9,0
    1b90:	8562                	mv	a0,s8
    1b92:	85e6                	mv	a1,s9
    1b94:	5a7000ef          	jal	ra,293a <systick_delay>
E:\GITKraken\Dual-core_Communication_Demo\Dual-core_Communication_Demo\MASTER\obj/../Libraries/seekfree_peripheral/SEEKFREE_IPS114_SPI.c:108
    
    IPS114_REST(1);
    1b98:	6791                	lui	a5,0x4
    1b9a:	6d878793          	addi	a5,a5,1752 # 46d8 <GPION>
    1b9e:	479c                	lw	a5,8(a5)
    1ba0:	873e                	mv	a4,a5
    1ba2:	6789                	lui	a5,0x2
    1ba4:	cb1c                	sw	a5,16(a4)
E:\GITKraken\Dual-core_Communication_Demo\Dual-core_Communication_Demo\MASTER\obj/../Libraries/seekfree_peripheral/SEEKFREE_IPS114_SPI.c:109
    systick_delay_ms(100);
    1ba6:	8341a703          	lw	a4,-1996(gp) # 200000a4 <sys_clk>
    1baa:	6789                	lui	a5,0x2
    1bac:	f4078793          	addi	a5,a5,-192 # 1f40 <ips114_showint16+0x10>
    1bb0:	02f75733          	divu	a4,a4,a5
    1bb4:	06400793          	li	a5,100
    1bb8:	02f707b3          	mul	a5,a4,a5
    1bbc:	8b3e                	mv	s6,a5
    1bbe:	4b81                	li	s7,0
    1bc0:	855a                	mv	a0,s6
    1bc2:	85de                	mv	a1,s7
    1bc4:	577000ef          	jal	ra,293a <systick_delay>
E:\GITKraken\Dual-core_Communication_Demo\Dual-core_Communication_Demo\MASTER\obj/../Libraries/seekfree_peripheral/SEEKFREE_IPS114_SPI.c:111
	
    ips114_writeIndex(0x36);
    1bc8:	03600513          	li	a0,54
    1bcc:	352d                	jal	19f6 <ips114_writeIndex>
E:\GITKraken\Dual-core_Communication_Demo\Dual-core_Communication_Demo\MASTER\obj/../Libraries/seekfree_peripheral/SEEKFREE_IPS114_SPI.c:112
    systick_delay_ms(100);
    1bce:	8341a703          	lw	a4,-1996(gp) # 200000a4 <sys_clk>
    1bd2:	6789                	lui	a5,0x2
    1bd4:	f4078793          	addi	a5,a5,-192 # 1f40 <ips114_showint16+0x10>
    1bd8:	02f75733          	divu	a4,a4,a5
    1bdc:	06400793          	li	a5,100
    1be0:	02f707b3          	mul	a5,a4,a5
    1be4:	8a3e                	mv	s4,a5
    1be6:	4a81                	li	s5,0
    1be8:	8552                	mv	a0,s4
    1bea:	85d6                	mv	a1,s5
    1bec:	54f000ef          	jal	ra,293a <systick_delay>
E:\GITKraken\Dual-core_Communication_Demo\Dual-core_Communication_Demo\MASTER\obj/../Libraries/seekfree_peripheral/SEEKFREE_IPS114_SPI.c:115
    if      (IPS114_DISPLAY_DIR==0)    ips114_writeData(0x00);
    else if (IPS114_DISPLAY_DIR==1)    ips114_writeData(0xC0);
    else if (IPS114_DISPLAY_DIR==2)    ips114_writeData(0x70);
    1bf0:	07000513          	li	a0,112
    1bf4:	3d91                	jal	1a48 <ips114_writeData>
E:\GITKraken\Dual-core_Communication_Demo\Dual-core_Communication_Demo\MASTER\obj/../Libraries/seekfree_peripheral/SEEKFREE_IPS114_SPI.c:118
    else                            ips114_writeData(0xA0);
    
    ips114_writeIndex(0x3A); 
    1bf6:	03a00513          	li	a0,58
    1bfa:	3bf5                	jal	19f6 <ips114_writeIndex>
E:\GITKraken\Dual-core_Communication_Demo\Dual-core_Communication_Demo\MASTER\obj/../Libraries/seekfree_peripheral/SEEKFREE_IPS114_SPI.c:119
    ips114_writeData(0x05);
    1bfc:	4515                	li	a0,5
    1bfe:	35a9                	jal	1a48 <ips114_writeData>
E:\GITKraken\Dual-core_Communication_Demo\Dual-core_Communication_Demo\MASTER\obj/../Libraries/seekfree_peripheral/SEEKFREE_IPS114_SPI.c:121

    ips114_writeIndex(0xB2);
    1c00:	0b200513          	li	a0,178
    1c04:	3bcd                	jal	19f6 <ips114_writeIndex>
E:\GITKraken\Dual-core_Communication_Demo\Dual-core_Communication_Demo\MASTER\obj/../Libraries/seekfree_peripheral/SEEKFREE_IPS114_SPI.c:122
    ips114_writeData(0x0C);
    1c06:	4531                	li	a0,12
    1c08:	3581                	jal	1a48 <ips114_writeData>
E:\GITKraken\Dual-core_Communication_Demo\Dual-core_Communication_Demo\MASTER\obj/../Libraries/seekfree_peripheral/SEEKFREE_IPS114_SPI.c:123
    ips114_writeData(0x0C);
    1c0a:	4531                	li	a0,12
    1c0c:	3d35                	jal	1a48 <ips114_writeData>
E:\GITKraken\Dual-core_Communication_Demo\Dual-core_Communication_Demo\MASTER\obj/../Libraries/seekfree_peripheral/SEEKFREE_IPS114_SPI.c:124
    ips114_writeData(0x00);
    1c0e:	4501                	li	a0,0
    1c10:	3d25                	jal	1a48 <ips114_writeData>
E:\GITKraken\Dual-core_Communication_Demo\Dual-core_Communication_Demo\MASTER\obj/../Libraries/seekfree_peripheral/SEEKFREE_IPS114_SPI.c:125
    ips114_writeData(0x33);
    1c12:	03300513          	li	a0,51
    1c16:	3d0d                	jal	1a48 <ips114_writeData>
E:\GITKraken\Dual-core_Communication_Demo\Dual-core_Communication_Demo\MASTER\obj/../Libraries/seekfree_peripheral/SEEKFREE_IPS114_SPI.c:126
    ips114_writeData(0x33); 
    1c18:	03300513          	li	a0,51
    1c1c:	3535                	jal	1a48 <ips114_writeData>
E:\GITKraken\Dual-core_Communication_Demo\Dual-core_Communication_Demo\MASTER\obj/../Libraries/seekfree_peripheral/SEEKFREE_IPS114_SPI.c:128

    ips114_writeIndex(0xB7); 
    1c1e:	0b700513          	li	a0,183
    1c22:	3bd1                	jal	19f6 <ips114_writeIndex>
E:\GITKraken\Dual-core_Communication_Demo\Dual-core_Communication_Demo\MASTER\obj/../Libraries/seekfree_peripheral/SEEKFREE_IPS114_SPI.c:129
    ips114_writeData(0x35);  
    1c24:	03500513          	li	a0,53
    1c28:	3505                	jal	1a48 <ips114_writeData>
E:\GITKraken\Dual-core_Communication_Demo\Dual-core_Communication_Demo\MASTER\obj/../Libraries/seekfree_peripheral/SEEKFREE_IPS114_SPI.c:131

    ips114_writeIndex(0xBB);
    1c2a:	0bb00513          	li	a0,187
    1c2e:	33e1                	jal	19f6 <ips114_writeIndex>
E:\GITKraken\Dual-core_Communication_Demo\Dual-core_Communication_Demo\MASTER\obj/../Libraries/seekfree_peripheral/SEEKFREE_IPS114_SPI.c:132
    ips114_writeData(0x37);
    1c30:	03700513          	li	a0,55
    1c34:	3d11                	jal	1a48 <ips114_writeData>
E:\GITKraken\Dual-core_Communication_Demo\Dual-core_Communication_Demo\MASTER\obj/../Libraries/seekfree_peripheral/SEEKFREE_IPS114_SPI.c:134

    ips114_writeIndex(0xC0);
    1c36:	0c000513          	li	a0,192
    1c3a:	3b75                	jal	19f6 <ips114_writeIndex>
E:\GITKraken\Dual-core_Communication_Demo\Dual-core_Communication_Demo\MASTER\obj/../Libraries/seekfree_peripheral/SEEKFREE_IPS114_SPI.c:135
    ips114_writeData(0x2C);
    1c3c:	02c00513          	li	a0,44
    1c40:	3521                	jal	1a48 <ips114_writeData>
E:\GITKraken\Dual-core_Communication_Demo\Dual-core_Communication_Demo\MASTER\obj/../Libraries/seekfree_peripheral/SEEKFREE_IPS114_SPI.c:137

    ips114_writeIndex(0xC2);
    1c42:	0c200513          	li	a0,194
    1c46:	3b45                	jal	19f6 <ips114_writeIndex>
E:\GITKraken\Dual-core_Communication_Demo\Dual-core_Communication_Demo\MASTER\obj/../Libraries/seekfree_peripheral/SEEKFREE_IPS114_SPI.c:138
    ips114_writeData(0x01);
    1c48:	4505                	li	a0,1
    1c4a:	3bfd                	jal	1a48 <ips114_writeData>
E:\GITKraken\Dual-core_Communication_Demo\Dual-core_Communication_Demo\MASTER\obj/../Libraries/seekfree_peripheral/SEEKFREE_IPS114_SPI.c:140

    ips114_writeIndex(0xC3);
    1c4c:	0c300513          	li	a0,195
    1c50:	335d                	jal	19f6 <ips114_writeIndex>
E:\GITKraken\Dual-core_Communication_Demo\Dual-core_Communication_Demo\MASTER\obj/../Libraries/seekfree_peripheral/SEEKFREE_IPS114_SPI.c:141
    ips114_writeData(0x12);   
    1c52:	4549                	li	a0,18
    1c54:	3bd5                	jal	1a48 <ips114_writeData>
E:\GITKraken\Dual-core_Communication_Demo\Dual-core_Communication_Demo\MASTER\obj/../Libraries/seekfree_peripheral/SEEKFREE_IPS114_SPI.c:143

    ips114_writeIndex(0xC4);
    1c56:	0c400513          	li	a0,196
    1c5a:	3b71                	jal	19f6 <ips114_writeIndex>
E:\GITKraken\Dual-core_Communication_Demo\Dual-core_Communication_Demo\MASTER\obj/../Libraries/seekfree_peripheral/SEEKFREE_IPS114_SPI.c:144
    ips114_writeData(0x20);  
    1c5c:	02000513          	li	a0,32
    1c60:	33e5                	jal	1a48 <ips114_writeData>
E:\GITKraken\Dual-core_Communication_Demo\Dual-core_Communication_Demo\MASTER\obj/../Libraries/seekfree_peripheral/SEEKFREE_IPS114_SPI.c:146

    ips114_writeIndex(0xC6); 
    1c62:	0c600513          	li	a0,198
    1c66:	3b41                	jal	19f6 <ips114_writeIndex>
E:\GITKraken\Dual-core_Communication_Demo\Dual-core_Communication_Demo\MASTER\obj/../Libraries/seekfree_peripheral/SEEKFREE_IPS114_SPI.c:147
    ips114_writeData(0x0F);    
    1c68:	453d                	li	a0,15
    1c6a:	3bf9                	jal	1a48 <ips114_writeData>
E:\GITKraken\Dual-core_Communication_Demo\Dual-core_Communication_Demo\MASTER\obj/../Libraries/seekfree_peripheral/SEEKFREE_IPS114_SPI.c:149

    ips114_writeIndex(0xD0); 
    1c6c:	0d000513          	li	a0,208
    1c70:	3359                	jal	19f6 <ips114_writeIndex>
E:\GITKraken\Dual-core_Communication_Demo\Dual-core_Communication_Demo\MASTER\obj/../Libraries/seekfree_peripheral/SEEKFREE_IPS114_SPI.c:150
    ips114_writeData(0xA4);
    1c72:	0a400513          	li	a0,164
    1c76:	3bc9                	jal	1a48 <ips114_writeData>
E:\GITKraken\Dual-core_Communication_Demo\Dual-core_Communication_Demo\MASTER\obj/../Libraries/seekfree_peripheral/SEEKFREE_IPS114_SPI.c:151
    ips114_writeData(0xA1);
    1c78:	0a100513          	li	a0,161
    1c7c:	33f1                	jal	1a48 <ips114_writeData>
E:\GITKraken\Dual-core_Communication_Demo\Dual-core_Communication_Demo\MASTER\obj/../Libraries/seekfree_peripheral/SEEKFREE_IPS114_SPI.c:153

    ips114_writeIndex(0xE0);
    1c7e:	0e000513          	li	a0,224
    1c82:	3b95                	jal	19f6 <ips114_writeIndex>
E:\GITKraken\Dual-core_Communication_Demo\Dual-core_Communication_Demo\MASTER\obj/../Libraries/seekfree_peripheral/SEEKFREE_IPS114_SPI.c:154
    ips114_writeData(0xD0);
    1c84:	0d000513          	li	a0,208
    1c88:	33c1                	jal	1a48 <ips114_writeData>
E:\GITKraken\Dual-core_Communication_Demo\Dual-core_Communication_Demo\MASTER\obj/../Libraries/seekfree_peripheral/SEEKFREE_IPS114_SPI.c:155
    ips114_writeData(0x04);
    1c8a:	4511                	li	a0,4
    1c8c:	3b75                	jal	1a48 <ips114_writeData>
E:\GITKraken\Dual-core_Communication_Demo\Dual-core_Communication_Demo\MASTER\obj/../Libraries/seekfree_peripheral/SEEKFREE_IPS114_SPI.c:156
    ips114_writeData(0x0D);
    1c8e:	4535                	li	a0,13
    1c90:	3b65                	jal	1a48 <ips114_writeData>
E:\GITKraken\Dual-core_Communication_Demo\Dual-core_Communication_Demo\MASTER\obj/../Libraries/seekfree_peripheral/SEEKFREE_IPS114_SPI.c:157
    ips114_writeData(0x11);
    1c92:	4545                	li	a0,17
    1c94:	3b55                	jal	1a48 <ips114_writeData>
E:\GITKraken\Dual-core_Communication_Demo\Dual-core_Communication_Demo\MASTER\obj/../Libraries/seekfree_peripheral/SEEKFREE_IPS114_SPI.c:158
    ips114_writeData(0x13);
    1c96:	454d                	li	a0,19
    1c98:	3b45                	jal	1a48 <ips114_writeData>
E:\GITKraken\Dual-core_Communication_Demo\Dual-core_Communication_Demo\MASTER\obj/../Libraries/seekfree_peripheral/SEEKFREE_IPS114_SPI.c:159
    ips114_writeData(0x2B);
    1c9a:	02b00513          	li	a0,43
    1c9e:	336d                	jal	1a48 <ips114_writeData>
E:\GITKraken\Dual-core_Communication_Demo\Dual-core_Communication_Demo\MASTER\obj/../Libraries/seekfree_peripheral/SEEKFREE_IPS114_SPI.c:160
    ips114_writeData(0x3F);
    1ca0:	03f00513          	li	a0,63
    1ca4:	3355                	jal	1a48 <ips114_writeData>
E:\GITKraken\Dual-core_Communication_Demo\Dual-core_Communication_Demo\MASTER\obj/../Libraries/seekfree_peripheral/SEEKFREE_IPS114_SPI.c:161
    ips114_writeData(0x54);
    1ca6:	05400513          	li	a0,84
    1caa:	3b79                	jal	1a48 <ips114_writeData>
E:\GITKraken\Dual-core_Communication_Demo\Dual-core_Communication_Demo\MASTER\obj/../Libraries/seekfree_peripheral/SEEKFREE_IPS114_SPI.c:162
    ips114_writeData(0x4C);
    1cac:	04c00513          	li	a0,76
    1cb0:	3b61                	jal	1a48 <ips114_writeData>
E:\GITKraken\Dual-core_Communication_Demo\Dual-core_Communication_Demo\MASTER\obj/../Libraries/seekfree_peripheral/SEEKFREE_IPS114_SPI.c:163
    ips114_writeData(0x18);
    1cb2:	4561                	li	a0,24
    1cb4:	3b51                	jal	1a48 <ips114_writeData>
E:\GITKraken\Dual-core_Communication_Demo\Dual-core_Communication_Demo\MASTER\obj/../Libraries/seekfree_peripheral/SEEKFREE_IPS114_SPI.c:164
    ips114_writeData(0x0D);
    1cb6:	4535                	li	a0,13
    1cb8:	3b41                	jal	1a48 <ips114_writeData>
E:\GITKraken\Dual-core_Communication_Demo\Dual-core_Communication_Demo\MASTER\obj/../Libraries/seekfree_peripheral/SEEKFREE_IPS114_SPI.c:165
    ips114_writeData(0x0B);
    1cba:	452d                	li	a0,11
    1cbc:	3371                	jal	1a48 <ips114_writeData>
E:\GITKraken\Dual-core_Communication_Demo\Dual-core_Communication_Demo\MASTER\obj/../Libraries/seekfree_peripheral/SEEKFREE_IPS114_SPI.c:166
    ips114_writeData(0x1F);
    1cbe:	457d                	li	a0,31
    1cc0:	3361                	jal	1a48 <ips114_writeData>
E:\GITKraken\Dual-core_Communication_Demo\Dual-core_Communication_Demo\MASTER\obj/../Libraries/seekfree_peripheral/SEEKFREE_IPS114_SPI.c:167
    ips114_writeData(0x23);
    1cc2:	02300513          	li	a0,35
    1cc6:	3349                	jal	1a48 <ips114_writeData>
E:\GITKraken\Dual-core_Communication_Demo\Dual-core_Communication_Demo\MASTER\obj/../Libraries/seekfree_peripheral/SEEKFREE_IPS114_SPI.c:169

    ips114_writeIndex(0xE1);
    1cc8:	0e100513          	li	a0,225
    1ccc:	332d                	jal	19f6 <ips114_writeIndex>
E:\GITKraken\Dual-core_Communication_Demo\Dual-core_Communication_Demo\MASTER\obj/../Libraries/seekfree_peripheral/SEEKFREE_IPS114_SPI.c:170
    ips114_writeData(0xD0);
    1cce:	0d000513          	li	a0,208
    1cd2:	3b9d                	jal	1a48 <ips114_writeData>
E:\GITKraken\Dual-core_Communication_Demo\Dual-core_Communication_Demo\MASTER\obj/../Libraries/seekfree_peripheral/SEEKFREE_IPS114_SPI.c:171
    ips114_writeData(0x04);
    1cd4:	4511                	li	a0,4
    1cd6:	3b8d                	jal	1a48 <ips114_writeData>
E:\GITKraken\Dual-core_Communication_Demo\Dual-core_Communication_Demo\MASTER\obj/../Libraries/seekfree_peripheral/SEEKFREE_IPS114_SPI.c:172
    ips114_writeData(0x0C);
    1cd8:	4531                	li	a0,12
    1cda:	33bd                	jal	1a48 <ips114_writeData>
E:\GITKraken\Dual-core_Communication_Demo\Dual-core_Communication_Demo\MASTER\obj/../Libraries/seekfree_peripheral/SEEKFREE_IPS114_SPI.c:173
    ips114_writeData(0x11);
    1cdc:	4545                	li	a0,17
    1cde:	33ad                	jal	1a48 <ips114_writeData>
E:\GITKraken\Dual-core_Communication_Demo\Dual-core_Communication_Demo\MASTER\obj/../Libraries/seekfree_peripheral/SEEKFREE_IPS114_SPI.c:174
    ips114_writeData(0x13);
    1ce0:	454d                	li	a0,19
    1ce2:	339d                	jal	1a48 <ips114_writeData>
E:\GITKraken\Dual-core_Communication_Demo\Dual-core_Communication_Demo\MASTER\obj/../Libraries/seekfree_peripheral/SEEKFREE_IPS114_SPI.c:175
    ips114_writeData(0x2C);
    1ce4:	02c00513          	li	a0,44
    1ce8:	3385                	jal	1a48 <ips114_writeData>
E:\GITKraken\Dual-core_Communication_Demo\Dual-core_Communication_Demo\MASTER\obj/../Libraries/seekfree_peripheral/SEEKFREE_IPS114_SPI.c:176
    ips114_writeData(0x3F);
    1cea:	03f00513          	li	a0,63
    1cee:	3ba9                	jal	1a48 <ips114_writeData>
E:\GITKraken\Dual-core_Communication_Demo\Dual-core_Communication_Demo\MASTER\obj/../Libraries/seekfree_peripheral/SEEKFREE_IPS114_SPI.c:177
    ips114_writeData(0x44);
    1cf0:	04400513          	li	a0,68
    1cf4:	3b91                	jal	1a48 <ips114_writeData>
E:\GITKraken\Dual-core_Communication_Demo\Dual-core_Communication_Demo\MASTER\obj/../Libraries/seekfree_peripheral/SEEKFREE_IPS114_SPI.c:178
    ips114_writeData(0x51);
    1cf6:	05100513          	li	a0,81
    1cfa:	33b9                	jal	1a48 <ips114_writeData>
E:\GITKraken\Dual-core_Communication_Demo\Dual-core_Communication_Demo\MASTER\obj/../Libraries/seekfree_peripheral/SEEKFREE_IPS114_SPI.c:179
    ips114_writeData(0x2F);
    1cfc:	02f00513          	li	a0,47
    1d00:	33a1                	jal	1a48 <ips114_writeData>
E:\GITKraken\Dual-core_Communication_Demo\Dual-core_Communication_Demo\MASTER\obj/../Libraries/seekfree_peripheral/SEEKFREE_IPS114_SPI.c:180
    ips114_writeData(0x1F);
    1d02:	457d                	li	a0,31
    1d04:	3391                	jal	1a48 <ips114_writeData>
E:\GITKraken\Dual-core_Communication_Demo\Dual-core_Communication_Demo\MASTER\obj/../Libraries/seekfree_peripheral/SEEKFREE_IPS114_SPI.c:181
    ips114_writeData(0x1F);
    1d06:	457d                	li	a0,31
    1d08:	3381                	jal	1a48 <ips114_writeData>
E:\GITKraken\Dual-core_Communication_Demo\Dual-core_Communication_Demo\MASTER\obj/../Libraries/seekfree_peripheral/SEEKFREE_IPS114_SPI.c:182
    ips114_writeData(0x20);
    1d0a:	02000513          	li	a0,32
    1d0e:	3b2d                	jal	1a48 <ips114_writeData>
E:\GITKraken\Dual-core_Communication_Demo\Dual-core_Communication_Demo\MASTER\obj/../Libraries/seekfree_peripheral/SEEKFREE_IPS114_SPI.c:183
    ips114_writeData(0x23);
    1d10:	02300513          	li	a0,35
    1d14:	3b15                	jal	1a48 <ips114_writeData>
E:\GITKraken\Dual-core_Communication_Demo\Dual-core_Communication_Demo\MASTER\obj/../Libraries/seekfree_peripheral/SEEKFREE_IPS114_SPI.c:185

    ips114_writeIndex(0x21); 
    1d16:	02100513          	li	a0,33
    1d1a:	39f1                	jal	19f6 <ips114_writeIndex>
E:\GITKraken\Dual-core_Communication_Demo\Dual-core_Communication_Demo\MASTER\obj/../Libraries/seekfree_peripheral/SEEKFREE_IPS114_SPI.c:187

    ips114_writeIndex(0x11); 
    1d1c:	4545                	li	a0,17
    1d1e:	39e1                	jal	19f6 <ips114_writeIndex>
E:\GITKraken\Dual-core_Communication_Demo\Dual-core_Communication_Demo\MASTER\obj/../Libraries/seekfree_peripheral/SEEKFREE_IPS114_SPI.c:188
    systick_delay_ms(120); 
    1d20:	8341a703          	lw	a4,-1996(gp) # 200000a4 <sys_clk>
    1d24:	6789                	lui	a5,0x2
    1d26:	f4078793          	addi	a5,a5,-192 # 1f40 <ips114_showint16+0x10>
    1d2a:	02f75733          	divu	a4,a4,a5
    1d2e:	87ba                	mv	a5,a4
    1d30:	0792                	slli	a5,a5,0x4
    1d32:	8f99                	sub	a5,a5,a4
    1d34:	078e                	slli	a5,a5,0x3
    1d36:	893e                	mv	s2,a5
    1d38:	4981                	li	s3,0
    1d3a:	854a                	mv	a0,s2
    1d3c:	85ce                	mv	a1,s3
    1d3e:	3fd000ef          	jal	ra,293a <systick_delay>
E:\GITKraken\Dual-core_Communication_Demo\Dual-core_Communication_Demo\MASTER\obj/../Libraries/seekfree_peripheral/SEEKFREE_IPS114_SPI.c:190

    ips114_writeIndex(0x29);
    1d42:	02900513          	li	a0,41
    1d46:	3945                	jal	19f6 <ips114_writeIndex>
E:\GITKraken\Dual-core_Communication_Demo\Dual-core_Communication_Demo\MASTER\obj/../Libraries/seekfree_peripheral/SEEKFREE_IPS114_SPI.c:191
    ips114_clear(IPS114_BGCOLOR);
    1d48:	67c1                	lui	a5,0x10
    1d4a:	fff78513          	addi	a0,a5,-1 # ffff <_data_lma+0xb81b>
    1d4e:	2869                	jal	1de8 <ips114_clear>
E:\GITKraken\Dual-core_Communication_Demo\Dual-core_Communication_Demo\MASTER\obj/../Libraries/seekfree_peripheral/SEEKFREE_IPS114_SPI.c:192
}
    1d50:	0001                	nop
    1d52:	50b2                	lw	ra,44(sp)
    1d54:	5422                	lw	s0,40(sp)
    1d56:	5912                	lw	s2,36(sp)
    1d58:	5982                	lw	s3,32(sp)
    1d5a:	4a72                	lw	s4,28(sp)
    1d5c:	4ae2                	lw	s5,24(sp)
    1d5e:	4b52                	lw	s6,20(sp)
    1d60:	4bc2                	lw	s7,16(sp)
    1d62:	4c32                	lw	s8,12(sp)
    1d64:	4ca2                	lw	s9,8(sp)
    1d66:	6145                	addi	sp,sp,48
    1d68:	8082                	ret

00001d6a <ips114_set_region>:
ips114_set_region():
E:\GITKraken\Dual-core_Communication_Demo\Dual-core_Communication_Demo\MASTER\obj/../Libraries/seekfree_peripheral/SEEKFREE_IPS114_SPI.c:197



void ips114_set_region(uint16 x1,uint16 y1,uint16 x2,uint16 y2)
{
    1d6a:	1101                	addi	sp,sp,-32
    1d6c:	ce06                	sw	ra,28(sp)
    1d6e:	cc22                	sw	s0,24(sp)
    1d70:	1000                	addi	s0,sp,32
    1d72:	87aa                	mv	a5,a0
    1d74:	8736                	mv	a4,a3
    1d76:	fef41723          	sh	a5,-18(s0)
    1d7a:	87ae                	mv	a5,a1
    1d7c:	fef41623          	sh	a5,-20(s0)
    1d80:	87b2                	mv	a5,a2
    1d82:	fef41523          	sh	a5,-22(s0)
    1d86:	87ba                	mv	a5,a4
    1d88:	fef41423          	sh	a5,-24(s0)
E:\GITKraken\Dual-core_Communication_Demo\Dual-core_Communication_Demo\MASTER\obj/../Libraries/seekfree_peripheral/SEEKFREE_IPS114_SPI.c:220
		ips114_writedata_16bit(y2+40);
		ips114_writeIndex(0x2c);//储存器写
	}
	else if(IPS114_DISPLAY_DIR==2)
	{
		ips114_writeIndex(0x2a);//列地址设置
    1d8c:	02a00513          	li	a0,42
    1d90:	319d                	jal	19f6 <ips114_writeIndex>
E:\GITKraken\Dual-core_Communication_Demo\Dual-core_Communication_Demo\MASTER\obj/../Libraries/seekfree_peripheral/SEEKFREE_IPS114_SPI.c:221
		ips114_writedata_16bit(x1+40);
    1d92:	fee45783          	lhu	a5,-18(s0)
    1d96:	02878793          	addi	a5,a5,40
    1d9a:	07c2                	slli	a5,a5,0x10
    1d9c:	83c1                	srli	a5,a5,0x10
    1d9e:	853e                	mv	a0,a5
    1da0:	39ed                	jal	1a9a <ips114_writedata_16bit>
E:\GITKraken\Dual-core_Communication_Demo\Dual-core_Communication_Demo\MASTER\obj/../Libraries/seekfree_peripheral/SEEKFREE_IPS114_SPI.c:222
		ips114_writedata_16bit(x2+40);
    1da2:	fea45783          	lhu	a5,-22(s0)
    1da6:	02878793          	addi	a5,a5,40
    1daa:	07c2                	slli	a5,a5,0x10
    1dac:	83c1                	srli	a5,a5,0x10
    1dae:	853e                	mv	a0,a5
    1db0:	31ed                	jal	1a9a <ips114_writedata_16bit>
E:\GITKraken\Dual-core_Communication_Demo\Dual-core_Communication_Demo\MASTER\obj/../Libraries/seekfree_peripheral/SEEKFREE_IPS114_SPI.c:223
		ips114_writeIndex(0x2b);//行地址设置
    1db2:	02b00513          	li	a0,43
    1db6:	3181                	jal	19f6 <ips114_writeIndex>
E:\GITKraken\Dual-core_Communication_Demo\Dual-core_Communication_Demo\MASTER\obj/../Libraries/seekfree_peripheral/SEEKFREE_IPS114_SPI.c:224
		ips114_writedata_16bit(y1+53);
    1db8:	fec45783          	lhu	a5,-20(s0)
    1dbc:	03578793          	addi	a5,a5,53
    1dc0:	07c2                	slli	a5,a5,0x10
    1dc2:	83c1                	srli	a5,a5,0x10
    1dc4:	853e                	mv	a0,a5
    1dc6:	39d1                	jal	1a9a <ips114_writedata_16bit>
E:\GITKraken\Dual-core_Communication_Demo\Dual-core_Communication_Demo\MASTER\obj/../Libraries/seekfree_peripheral/SEEKFREE_IPS114_SPI.c:225
		ips114_writedata_16bit(y2+53);
    1dc8:	fe845783          	lhu	a5,-24(s0)
    1dcc:	03578793          	addi	a5,a5,53
    1dd0:	07c2                	slli	a5,a5,0x10
    1dd2:	83c1                	srli	a5,a5,0x10
    1dd4:	853e                	mv	a0,a5
    1dd6:	31d1                	jal	1a9a <ips114_writedata_16bit>
E:\GITKraken\Dual-core_Communication_Demo\Dual-core_Communication_Demo\MASTER\obj/../Libraries/seekfree_peripheral/SEEKFREE_IPS114_SPI.c:226
		ips114_writeIndex(0x2c);//储存器写
    1dd8:	02c00513          	li	a0,44
    1ddc:	3929                	jal	19f6 <ips114_writeIndex>
E:\GITKraken\Dual-core_Communication_Demo\Dual-core_Communication_Demo\MASTER\obj/../Libraries/seekfree_peripheral/SEEKFREE_IPS114_SPI.c:238
		ips114_writeIndex(0x2b);//行地址设置
		ips114_writedata_16bit(y1+52);
		ips114_writedata_16bit(y2+52);
		ips114_writeIndex(0x2c);//储存器写
	}
}
    1dde:	0001                	nop
    1de0:	40f2                	lw	ra,28(sp)
    1de2:	4462                	lw	s0,24(sp)
    1de4:	6105                	addi	sp,sp,32
    1de6:	8082                	ret

00001de8 <ips114_clear>:
ips114_clear():
E:\GITKraken\Dual-core_Communication_Demo\Dual-core_Communication_Demo\MASTER\obj/../Libraries/seekfree_peripheral/SEEKFREE_IPS114_SPI.c:248
//  @return     void
//  @since      v1.0
//  Sample usage:               ips114_clear(YELLOW);// 全屏设置为黄色
//-------------------------------------------------------------------------------------------------------------------
void ips114_clear(uint16 color)
{
    1de8:	7179                	addi	sp,sp,-48
    1dea:	d606                	sw	ra,44(sp)
    1dec:	d422                	sw	s0,40(sp)
    1dee:	1800                	addi	s0,sp,48
    1df0:	87aa                	mv	a5,a0
    1df2:	fcf41f23          	sh	a5,-34(s0)
E:\GITKraken\Dual-core_Communication_Demo\Dual-core_Communication_Demo\MASTER\obj/../Libraries/seekfree_peripheral/SEEKFREE_IPS114_SPI.c:250
    uint16 i,j;
	ips114_set_region(0,0,IPS114_X_MAX-1,IPS114_Y_MAX-1);
    1df6:	08600693          	li	a3,134
    1dfa:	0ef00613          	li	a2,239
    1dfe:	4581                	li	a1,0
    1e00:	4501                	li	a0,0
    1e02:	37a5                	jal	1d6a <ips114_set_region>
E:\GITKraken\Dual-core_Communication_Demo\Dual-core_Communication_Demo\MASTER\obj/../Libraries/seekfree_peripheral/SEEKFREE_IPS114_SPI.c:251
    for(i=0;i<IPS114_X_MAX;i++)
    1e04:	fe041723          	sh	zero,-18(s0)
    1e08:	a805                	j	1e38 <ips114_clear+0x50>
E:\GITKraken\Dual-core_Communication_Demo\Dual-core_Communication_Demo\MASTER\obj/../Libraries/seekfree_peripheral/SEEKFREE_IPS114_SPI.c:253
    {
        for (j=0;j<IPS114_Y_MAX;j++)
    1e0a:	fe041623          	sh	zero,-20(s0)
    1e0e:	a811                	j	1e22 <ips114_clear+0x3a>
E:\GITKraken\Dual-core_Communication_Demo\Dual-core_Communication_Demo\MASTER\obj/../Libraries/seekfree_peripheral/SEEKFREE_IPS114_SPI.c:255 (discriminator 3)
	   	{
        	ips114_writedata_16bit(color);	 			 
    1e10:	fde45783          	lhu	a5,-34(s0)
    1e14:	853e                	mv	a0,a5
    1e16:	3151                	jal	1a9a <ips114_writedata_16bit>
E:\GITKraken\Dual-core_Communication_Demo\Dual-core_Communication_Demo\MASTER\obj/../Libraries/seekfree_peripheral/SEEKFREE_IPS114_SPI.c:253 (discriminator 3)
        for (j=0;j<IPS114_Y_MAX;j++)
    1e18:	fec45783          	lhu	a5,-20(s0)
    1e1c:	0785                	addi	a5,a5,1
    1e1e:	fef41623          	sh	a5,-20(s0)
E:\GITKraken\Dual-core_Communication_Demo\Dual-core_Communication_Demo\MASTER\obj/../Libraries/seekfree_peripheral/SEEKFREE_IPS114_SPI.c:253 (discriminator 1)
    1e22:	fec45703          	lhu	a4,-20(s0)
    1e26:	08600793          	li	a5,134
    1e2a:	fee7f3e3          	bgeu	a5,a4,1e10 <ips114_clear+0x28>
E:\GITKraken\Dual-core_Communication_Demo\Dual-core_Communication_Demo\MASTER\obj/../Libraries/seekfree_peripheral/SEEKFREE_IPS114_SPI.c:251 (discriminator 2)
    for(i=0;i<IPS114_X_MAX;i++)
    1e2e:	fee45783          	lhu	a5,-18(s0)
    1e32:	0785                	addi	a5,a5,1
    1e34:	fef41723          	sh	a5,-18(s0)
E:\GITKraken\Dual-core_Communication_Demo\Dual-core_Communication_Demo\MASTER\obj/../Libraries/seekfree_peripheral/SEEKFREE_IPS114_SPI.c:251 (discriminator 1)
    1e38:	fee45703          	lhu	a4,-18(s0)
    1e3c:	0ef00793          	li	a5,239
    1e40:	fce7f5e3          	bgeu	a5,a4,1e0a <ips114_clear+0x22>
E:\GITKraken\Dual-core_Communication_Demo\Dual-core_Communication_Demo\MASTER\obj/../Libraries/seekfree_peripheral/SEEKFREE_IPS114_SPI.c:258
	    }
    }
}
    1e44:	0001                	nop
    1e46:	50b2                	lw	ra,44(sp)
    1e48:	5422                	lw	s0,40(sp)
    1e4a:	6145                	addi	sp,sp,48
    1e4c:	8082                	ret

00001e4e <ips114_showchar>:
ips114_showchar():
E:\GITKraken\Dual-core_Communication_Demo\Dual-core_Communication_Demo\MASTER\obj/../Libraries/seekfree_peripheral/SEEKFREE_IPS114_SPI.c:287
//  @return     void
//  @since      v1.0
//  Sample usage:               ips114_showchar(0,0,'x');//坐标0,0写一个字符x
//-------------------------------------------------------------------------------------------------------------------
void ips114_showchar(uint16 x,uint16 y,const int8 dat)
{
    1e4e:	7179                	addi	sp,sp,-48
    1e50:	d606                	sw	ra,44(sp)
    1e52:	d422                	sw	s0,40(sp)
    1e54:	1800                	addi	s0,sp,48
    1e56:	87aa                	mv	a5,a0
    1e58:	86ae                	mv	a3,a1
    1e5a:	8732                	mv	a4,a2
    1e5c:	fcf41f23          	sh	a5,-34(s0)
    1e60:	87b6                	mv	a5,a3
    1e62:	fcf41e23          	sh	a5,-36(s0)
    1e66:	87ba                	mv	a5,a4
    1e68:	fcf40da3          	sb	a5,-37(s0)
E:\GITKraken\Dual-core_Communication_Demo\Dual-core_Communication_Demo\MASTER\obj/../Libraries/seekfree_peripheral/SEEKFREE_IPS114_SPI.c:291
	uint8 i,j;
	uint8 temp;
    
	for(i=0; i<16; i++)
    1e6c:	fe0407a3          	sb	zero,-17(s0)
    1e70:	a075                	j	1f1c <ips114_showchar+0xce>
E:\GITKraken\Dual-core_Communication_Demo\Dual-core_Communication_Demo\MASTER\obj/../Libraries/seekfree_peripheral/SEEKFREE_IPS114_SPI.c:293
	{
		ips114_set_region(x,y+i,x+7,y+i);
    1e72:	fef44783          	lbu	a5,-17(s0)
    1e76:	01079713          	slli	a4,a5,0x10
    1e7a:	8341                	srli	a4,a4,0x10
    1e7c:	fdc45783          	lhu	a5,-36(s0)
    1e80:	97ba                	add	a5,a5,a4
    1e82:	01079593          	slli	a1,a5,0x10
    1e86:	81c1                	srli	a1,a1,0x10
    1e88:	fde45783          	lhu	a5,-34(s0)
    1e8c:	079d                	addi	a5,a5,7
    1e8e:	01079613          	slli	a2,a5,0x10
    1e92:	8241                	srli	a2,a2,0x10
    1e94:	fef44783          	lbu	a5,-17(s0)
    1e98:	01079713          	slli	a4,a5,0x10
    1e9c:	8341                	srli	a4,a4,0x10
    1e9e:	fdc45783          	lhu	a5,-36(s0)
    1ea2:	97ba                	add	a5,a5,a4
    1ea4:	01079713          	slli	a4,a5,0x10
    1ea8:	8341                	srli	a4,a4,0x10
    1eaa:	fde45783          	lhu	a5,-34(s0)
    1eae:	86ba                	mv	a3,a4
    1eb0:	853e                	mv	a0,a5
    1eb2:	3d65                	jal	1d6a <ips114_set_region>
E:\GITKraken\Dual-core_Communication_Demo\Dual-core_Communication_Demo\MASTER\obj/../Libraries/seekfree_peripheral/SEEKFREE_IPS114_SPI.c:294
		temp = tft_ascii[dat-32][i];//减32因为是取模是从空格开始取得 空格在ascii中序号是32
    1eb4:	fdb40783          	lb	a5,-37(s0)
    1eb8:	fe078693          	addi	a3,a5,-32
    1ebc:	fef44783          	lbu	a5,-17(s0)
    1ec0:	6711                	lui	a4,0x4
    1ec2:	0692                	slli	a3,a3,0x4
    1ec4:	0e870713          	addi	a4,a4,232 # 40e8 <tft_ascii>
    1ec8:	9736                	add	a4,a4,a3
    1eca:	97ba                	add	a5,a5,a4
    1ecc:	0007c783          	lbu	a5,0(a5)
    1ed0:	fef406a3          	sb	a5,-19(s0)
E:\GITKraken\Dual-core_Communication_Demo\Dual-core_Communication_Demo\MASTER\obj/../Libraries/seekfree_peripheral/SEEKFREE_IPS114_SPI.c:295
		for(j=0; j<8; j++)
    1ed4:	fe040723          	sb	zero,-18(s0)
    1ed8:	a805                	j	1f08 <ips114_showchar+0xba>
E:\GITKraken\Dual-core_Communication_Demo\Dual-core_Communication_Demo\MASTER\obj/../Libraries/seekfree_peripheral/SEEKFREE_IPS114_SPI.c:297
		{
			if(temp&0x01)	
    1eda:	fed44783          	lbu	a5,-19(s0)
    1ede:	8b85                	andi	a5,a5,1
    1ee0:	c791                	beqz	a5,1eec <ips114_showchar+0x9e>
E:\GITKraken\Dual-core_Communication_Demo\Dual-core_Communication_Demo\MASTER\obj/../Libraries/seekfree_peripheral/SEEKFREE_IPS114_SPI.c:299
            {
                ips114_writedata_16bit(IPS114_PENCOLOR);
    1ee2:	67c1                	lui	a5,0x10
    1ee4:	80078513          	addi	a0,a5,-2048 # f800 <_data_lma+0xb01c>
    1ee8:	3e4d                	jal	1a9a <ips114_writedata_16bit>
    1eea:	a029                	j	1ef4 <ips114_showchar+0xa6>
E:\GITKraken\Dual-core_Communication_Demo\Dual-core_Communication_Demo\MASTER\obj/../Libraries/seekfree_peripheral/SEEKFREE_IPS114_SPI.c:301
            }
			else			ips114_writedata_16bit(IPS114_BGCOLOR);
    1eec:	67c1                	lui	a5,0x10
    1eee:	fff78513          	addi	a0,a5,-1 # ffff <_data_lma+0xb81b>
    1ef2:	3665                	jal	1a9a <ips114_writedata_16bit>
E:\GITKraken\Dual-core_Communication_Demo\Dual-core_Communication_Demo\MASTER\obj/../Libraries/seekfree_peripheral/SEEKFREE_IPS114_SPI.c:302 (discriminator 2)
			temp>>=1;
    1ef4:	fed44783          	lbu	a5,-19(s0)
    1ef8:	8385                	srli	a5,a5,0x1
    1efa:	fef406a3          	sb	a5,-19(s0)
E:\GITKraken\Dual-core_Communication_Demo\Dual-core_Communication_Demo\MASTER\obj/../Libraries/seekfree_peripheral/SEEKFREE_IPS114_SPI.c:295 (discriminator 2)
		for(j=0; j<8; j++)
    1efe:	fee44783          	lbu	a5,-18(s0)
    1f02:	0785                	addi	a5,a5,1
    1f04:	fef40723          	sb	a5,-18(s0)
E:\GITKraken\Dual-core_Communication_Demo\Dual-core_Communication_Demo\MASTER\obj/../Libraries/seekfree_peripheral/SEEKFREE_IPS114_SPI.c:295 (discriminator 1)
    1f08:	fee44703          	lbu	a4,-18(s0)
    1f0c:	479d                	li	a5,7
    1f0e:	fce7f6e3          	bgeu	a5,a4,1eda <ips114_showchar+0x8c>
E:\GITKraken\Dual-core_Communication_Demo\Dual-core_Communication_Demo\MASTER\obj/../Libraries/seekfree_peripheral/SEEKFREE_IPS114_SPI.c:291 (discriminator 2)
	for(i=0; i<16; i++)
    1f12:	fef44783          	lbu	a5,-17(s0)
    1f16:	0785                	addi	a5,a5,1
    1f18:	fef407a3          	sb	a5,-17(s0)
E:\GITKraken\Dual-core_Communication_Demo\Dual-core_Communication_Demo\MASTER\obj/../Libraries/seekfree_peripheral/SEEKFREE_IPS114_SPI.c:291 (discriminator 1)
    1f1c:	fef44703          	lbu	a4,-17(s0)
    1f20:	47bd                	li	a5,15
    1f22:	f4e7f8e3          	bgeu	a5,a4,1e72 <ips114_showchar+0x24>
E:\GITKraken\Dual-core_Communication_Demo\Dual-core_Communication_Demo\MASTER\obj/../Libraries/seekfree_peripheral/SEEKFREE_IPS114_SPI.c:305
		}
	}
}
    1f26:	0001                	nop
    1f28:	50b2                	lw	ra,44(sp)
    1f2a:	5422                	lw	s0,40(sp)
    1f2c:	6145                	addi	sp,sp,48
    1f2e:	8082                	ret

00001f30 <ips114_showint16>:
ips114_showint16():
E:\GITKraken\Dual-core_Communication_Demo\Dual-core_Communication_Demo\MASTER\obj/../Libraries/seekfree_peripheral/SEEKFREE_IPS114_SPI.c:395
//  @return     void
//  @since      v1.0
//  Sample usage:               ips114_showint16(0,0,x);//x为int16类型
//-------------------------------------------------------------------------------------------------------------------
void ips114_showint16(uint16 x,uint16 y,int16 dat)
{
    1f30:	7179                	addi	sp,sp,-48
    1f32:	d606                	sw	ra,44(sp)
    1f34:	d422                	sw	s0,40(sp)
    1f36:	1800                	addi	s0,sp,48
    1f38:	87aa                	mv	a5,a0
    1f3a:	86ae                	mv	a3,a1
    1f3c:	8732                	mv	a4,a2
    1f3e:	fcf41f23          	sh	a5,-34(s0)
    1f42:	87b6                	mv	a5,a3
    1f44:	fcf41e23          	sh	a5,-36(s0)
    1f48:	87ba                	mv	a5,a4
    1f4a:	fcf41d23          	sh	a5,-38(s0)
E:\GITKraken\Dual-core_Communication_Demo\Dual-core_Communication_Demo\MASTER\obj/../Libraries/seekfree_peripheral/SEEKFREE_IPS114_SPI.c:398
	uint8 a[5];
	uint8 i;
	if(dat<0)
    1f4e:	fda41783          	lh	a5,-38(s0)
    1f52:	0207d863          	bgez	a5,1f82 <ips114_showint16+0x52>
E:\GITKraken\Dual-core_Communication_Demo\Dual-core_Communication_Demo\MASTER\obj/../Libraries/seekfree_peripheral/SEEKFREE_IPS114_SPI.c:400
	{
		ips114_showchar(x,y*16,'-');
    1f56:	fdc45783          	lhu	a5,-36(s0)
    1f5a:	0792                	slli	a5,a5,0x4
    1f5c:	01079713          	slli	a4,a5,0x10
    1f60:	8341                	srli	a4,a4,0x10
    1f62:	fde45783          	lhu	a5,-34(s0)
    1f66:	02d00613          	li	a2,45
    1f6a:	85ba                	mv	a1,a4
    1f6c:	853e                	mv	a0,a5
    1f6e:	35c5                	jal	1e4e <ips114_showchar>
E:\GITKraken\Dual-core_Communication_Demo\Dual-core_Communication_Demo\MASTER\obj/../Libraries/seekfree_peripheral/SEEKFREE_IPS114_SPI.c:401
		dat = -dat;
    1f70:	fda45783          	lhu	a5,-38(s0)
    1f74:	40f007b3          	neg	a5,a5
    1f78:	07c2                	slli	a5,a5,0x10
    1f7a:	83c1                	srli	a5,a5,0x10
    1f7c:	fcf41d23          	sh	a5,-38(s0)
    1f80:	a831                	j	1f9c <ips114_showint16+0x6c>
E:\GITKraken\Dual-core_Communication_Demo\Dual-core_Communication_Demo\MASTER\obj/../Libraries/seekfree_peripheral/SEEKFREE_IPS114_SPI.c:403
	}
	else	ips114_showchar(x,y*16,' ');
    1f82:	fdc45783          	lhu	a5,-36(s0)
    1f86:	0792                	slli	a5,a5,0x4
    1f88:	01079713          	slli	a4,a5,0x10
    1f8c:	8341                	srli	a4,a4,0x10
    1f8e:	fde45783          	lhu	a5,-34(s0)
    1f92:	02000613          	li	a2,32
    1f96:	85ba                	mv	a1,a4
    1f98:	853e                	mv	a0,a5
    1f9a:	3d55                	jal	1e4e <ips114_showchar>
E:\GITKraken\Dual-core_Communication_Demo\Dual-core_Communication_Demo\MASTER\obj/../Libraries/seekfree_peripheral/SEEKFREE_IPS114_SPI.c:405

	a[0] = dat/10000;
    1f9c:	fda41703          	lh	a4,-38(s0)
    1fa0:	6789                	lui	a5,0x2
    1fa2:	71078793          	addi	a5,a5,1808 # 2710 <spi_gpio_init+0x158>
    1fa6:	02f747b3          	div	a5,a4,a5
    1faa:	07c2                	slli	a5,a5,0x10
    1fac:	87c1                	srai	a5,a5,0x10
    1fae:	0ff7f793          	andi	a5,a5,255
    1fb2:	fef40423          	sb	a5,-24(s0)
E:\GITKraken\Dual-core_Communication_Demo\Dual-core_Communication_Demo\MASTER\obj/../Libraries/seekfree_peripheral/SEEKFREE_IPS114_SPI.c:406
	a[1] = dat/1000%10;
    1fb6:	fda41703          	lh	a4,-38(s0)
    1fba:	3e800793          	li	a5,1000
    1fbe:	02f747b3          	div	a5,a4,a5
    1fc2:	01079713          	slli	a4,a5,0x10
    1fc6:	8741                	srai	a4,a4,0x10
    1fc8:	47a9                	li	a5,10
    1fca:	02f767b3          	rem	a5,a4,a5
    1fce:	07c2                	slli	a5,a5,0x10
    1fd0:	87c1                	srai	a5,a5,0x10
    1fd2:	0ff7f793          	andi	a5,a5,255
    1fd6:	fef404a3          	sb	a5,-23(s0)
E:\GITKraken\Dual-core_Communication_Demo\Dual-core_Communication_Demo\MASTER\obj/../Libraries/seekfree_peripheral/SEEKFREE_IPS114_SPI.c:407
	a[2] = dat/100%10;
    1fda:	fda41703          	lh	a4,-38(s0)
    1fde:	06400793          	li	a5,100
    1fe2:	02f747b3          	div	a5,a4,a5
    1fe6:	01079713          	slli	a4,a5,0x10
    1fea:	8741                	srai	a4,a4,0x10
    1fec:	47a9                	li	a5,10
    1fee:	02f767b3          	rem	a5,a4,a5
    1ff2:	07c2                	slli	a5,a5,0x10
    1ff4:	87c1                	srai	a5,a5,0x10
    1ff6:	0ff7f793          	andi	a5,a5,255
    1ffa:	fef40523          	sb	a5,-22(s0)
E:\GITKraken\Dual-core_Communication_Demo\Dual-core_Communication_Demo\MASTER\obj/../Libraries/seekfree_peripheral/SEEKFREE_IPS114_SPI.c:408
	a[3] = dat/10%10;
    1ffe:	fda41703          	lh	a4,-38(s0)
    2002:	47a9                	li	a5,10
    2004:	02f747b3          	div	a5,a4,a5
    2008:	01079713          	slli	a4,a5,0x10
    200c:	8741                	srai	a4,a4,0x10
    200e:	47a9                	li	a5,10
    2010:	02f767b3          	rem	a5,a4,a5
    2014:	07c2                	slli	a5,a5,0x10
    2016:	87c1                	srai	a5,a5,0x10
    2018:	0ff7f793          	andi	a5,a5,255
    201c:	fef405a3          	sb	a5,-21(s0)
E:\GITKraken\Dual-core_Communication_Demo\Dual-core_Communication_Demo\MASTER\obj/../Libraries/seekfree_peripheral/SEEKFREE_IPS114_SPI.c:409
	a[4] = dat%10;
    2020:	fda41703          	lh	a4,-38(s0)
    2024:	47a9                	li	a5,10
    2026:	02f767b3          	rem	a5,a4,a5
    202a:	07c2                	slli	a5,a5,0x10
    202c:	87c1                	srai	a5,a5,0x10
    202e:	0ff7f793          	andi	a5,a5,255
    2032:	fef40623          	sb	a5,-20(s0)
E:\GITKraken\Dual-core_Communication_Demo\Dual-core_Communication_Demo\MASTER\obj/../Libraries/seekfree_peripheral/SEEKFREE_IPS114_SPI.c:411
	
	i = 0;
    2036:	fe0407a3          	sb	zero,-17(s0)
E:\GITKraken\Dual-core_Communication_Demo\Dual-core_Communication_Demo\MASTER\obj/../Libraries/seekfree_peripheral/SEEKFREE_IPS114_SPI.c:412
	while(i<5)
    203a:	a8a1                	j	2092 <ips114_showint16+0x162>
E:\GITKraken\Dual-core_Communication_Demo\Dual-core_Communication_Demo\MASTER\obj/../Libraries/seekfree_peripheral/SEEKFREE_IPS114_SPI.c:414
	{
		ips114_showchar(x+(8*(i+1)),y*16,'0' + a[i]);
    203c:	fef44783          	lbu	a5,-17(s0)
    2040:	0785                	addi	a5,a5,1
    2042:	07c2                	slli	a5,a5,0x10
    2044:	83c1                	srli	a5,a5,0x10
    2046:	078e                	slli	a5,a5,0x3
    2048:	01079713          	slli	a4,a5,0x10
    204c:	8341                	srli	a4,a4,0x10
    204e:	fde45783          	lhu	a5,-34(s0)
    2052:	97ba                	add	a5,a5,a4
    2054:	01079713          	slli	a4,a5,0x10
    2058:	8341                	srli	a4,a4,0x10
    205a:	fdc45783          	lhu	a5,-36(s0)
    205e:	0792                	slli	a5,a5,0x4
    2060:	01079693          	slli	a3,a5,0x10
    2064:	82c1                	srli	a3,a3,0x10
    2066:	fef44783          	lbu	a5,-17(s0)
    206a:	ff040613          	addi	a2,s0,-16
    206e:	97b2                	add	a5,a5,a2
    2070:	ff87c783          	lbu	a5,-8(a5)
    2074:	03078793          	addi	a5,a5,48
    2078:	0ff7f793          	andi	a5,a5,255
    207c:	07e2                	slli	a5,a5,0x18
    207e:	87e1                	srai	a5,a5,0x18
    2080:	863e                	mv	a2,a5
    2082:	85b6                	mv	a1,a3
    2084:	853a                	mv	a0,a4
    2086:	33e1                	jal	1e4e <ips114_showchar>
E:\GITKraken\Dual-core_Communication_Demo\Dual-core_Communication_Demo\MASTER\obj/../Libraries/seekfree_peripheral/SEEKFREE_IPS114_SPI.c:415
		i++;
    2088:	fef44783          	lbu	a5,-17(s0)
    208c:	0785                	addi	a5,a5,1
    208e:	fef407a3          	sb	a5,-17(s0)
E:\GITKraken\Dual-core_Communication_Demo\Dual-core_Communication_Demo\MASTER\obj/../Libraries/seekfree_peripheral/SEEKFREE_IPS114_SPI.c:412
	while(i<5)
    2092:	fef44703          	lbu	a4,-17(s0)
    2096:	4791                	li	a5,4
    2098:	fae7f2e3          	bgeu	a5,a4,203c <ips114_showint16+0x10c>
E:\GITKraken\Dual-core_Communication_Demo\Dual-core_Communication_Demo\MASTER\obj/../Libraries/seekfree_peripheral/SEEKFREE_IPS114_SPI.c:417
	}
}
    209c:	0001                	nop
    209e:	50b2                	lw	ra,44(sp)
    20a0:	5422                	lw	s0,40(sp)
    20a2:	6145                	addi	sp,sp,48
    20a4:	8082                	ret

000020a6 <mt9v03x_uart_callback>:
mt9v03x_uart_callback():
E:\GITKraken\Dual-core_Communication_Demo\Dual-core_Communication_Demo\MASTER\obj/../Libraries/seekfree_peripheral/SEEKFREE_MT9V03X.c:90
//  @since      v1.0
//  Sample usage:
//  @note       
//-------------------------------------------------------------------------------------------------------------------
void mt9v03x_uart_callback(void)
{
    20a6:	1141                	addi	sp,sp,-16
    20a8:	c622                	sw	s0,12(sp)
    20aa:	0800                	addi	s0,sp,16
E:\GITKraken\Dual-core_Communication_Demo\Dual-core_Communication_Demo\MASTER\obj/../Libraries/seekfree_peripheral/SEEKFREE_MT9V03X.c:91
    receive[receive_num] = ((USART_TypeDef*)UARTN[MT9V03X_COF_UART])->DATAR & 0x01FF;;
    20ac:	6791                	lui	a5,0x4
    20ae:	6f878793          	addi	a5,a5,1784 # 46f8 <UARTN>
    20b2:	43dc                	lw	a5,4(a5)
    20b4:	0047d783          	lhu	a5,4(a5)
    20b8:	01079713          	slli	a4,a5,0x10
    20bc:	8341                	srli	a4,a4,0x10
    20be:	8271c783          	lbu	a5,-2009(gp) # 20000097 <receive_num>
    20c2:	86be                	mv	a3,a5
    20c4:	0ff77713          	andi	a4,a4,255
    20c8:	82418793          	addi	a5,gp,-2012 # 20000094 <receive>
    20cc:	97b6                	add	a5,a5,a3
    20ce:	00e78023          	sb	a4,0(a5)
E:\GITKraken\Dual-core_Communication_Demo\Dual-core_Communication_Demo\MASTER\obj/../Libraries/seekfree_peripheral/SEEKFREE_MT9V03X.c:92
    receive_num++;
    20d2:	8271c783          	lbu	a5,-2009(gp) # 20000097 <receive_num>
    20d6:	0785                	addi	a5,a5,1
    20d8:	0ff7f713          	andi	a4,a5,255
    20dc:	82e183a3          	sb	a4,-2009(gp) # 20000097 <receive_num>
E:\GITKraken\Dual-core_Communication_Demo\Dual-core_Communication_Demo\MASTER\obj/../Libraries/seekfree_peripheral/SEEKFREE_MT9V03X.c:94

    if(1==receive_num && 0XA5!=receive[0])  receive_num = 0;
    20e0:	8271c703          	lbu	a4,-2009(gp) # 20000097 <receive_num>
    20e4:	4785                	li	a5,1
    20e6:	00f71a63          	bne	a4,a5,20fa <mt9v03x_uart_callback+0x54>
E:\GITKraken\Dual-core_Communication_Demo\Dual-core_Communication_Demo\MASTER\obj/../Libraries/seekfree_peripheral/SEEKFREE_MT9V03X.c:94 (discriminator 1)
    20ea:	8241c703          	lbu	a4,-2012(gp) # 20000094 <receive>
    20ee:	0a500793          	li	a5,165
    20f2:	00f70463          	beq	a4,a5,20fa <mt9v03x_uart_callback+0x54>
E:\GITKraken\Dual-core_Communication_Demo\Dual-core_Communication_Demo\MASTER\obj/../Libraries/seekfree_peripheral/SEEKFREE_MT9V03X.c:94 (discriminator 2)
    20f6:	820183a3          	sb	zero,-2009(gp) # 20000097 <receive_num>
E:\GITKraken\Dual-core_Communication_Demo\Dual-core_Communication_Demo\MASTER\obj/../Libraries/seekfree_peripheral/SEEKFREE_MT9V03X.c:95
    if(3 == receive_num)
    20fa:	8271c703          	lbu	a4,-2009(gp) # 20000097 <receive_num>
    20fe:	478d                	li	a5,3
    2100:	00f71763          	bne	a4,a5,210e <mt9v03x_uart_callback+0x68>
E:\GITKraken\Dual-core_Communication_Demo\Dual-core_Communication_Demo\MASTER\obj/../Libraries/seekfree_peripheral/SEEKFREE_MT9V03X.c:97
    {
        receive_num = 0;
    2104:	820183a3          	sb	zero,-2009(gp) # 20000097 <receive_num>
E:\GITKraken\Dual-core_Communication_Demo\Dual-core_Communication_Demo\MASTER\obj/../Libraries/seekfree_peripheral/SEEKFREE_MT9V03X.c:98
        uart_receive_flag = 1;
    2108:	4705                	li	a4,1
    210a:	82e18423          	sb	a4,-2008(gp) # 20000098 <uart_receive_flag>
E:\GITKraken\Dual-core_Communication_Demo\Dual-core_Communication_Demo\MASTER\obj/../Libraries/seekfree_peripheral/SEEKFREE_MT9V03X.c:101
    }
    
}
    210e:	0001                	nop
    2110:	4432                	lw	s0,12(sp)
    2112:	0141                	addi	sp,sp,16
    2114:	8082                	ret

00002116 <mt9v03x_vsync>:
mt9v03x_vsync():
E:\GITKraken\Dual-core_Communication_Demo\Dual-core_Communication_Demo\MASTER\obj/../Libraries/seekfree_peripheral/SEEKFREE_MT9V03X.c:376
//  @return     void
//  @since      v1.0
//  Sample usage:               在isr.c里面先创建对应的中断函数，然后调用该函数(之后别忘记清除中断标志位)
//-------------------------------------------------------------------------------------------------------------------
void mt9v03x_vsync(void)
{
    2116:	1141                	addi	sp,sp,-16
    2118:	c622                	sw	s0,12(sp)
    211a:	0800                	addi	s0,sp,16
E:\GITKraken\Dual-core_Communication_Demo\Dual-core_Communication_Demo\MASTER\obj/../Libraries/seekfree_peripheral/SEEKFREE_MT9V03X.c:377
    MT9V03X_DMA_CH->CNTR = MT9V03X_H*MT9V03X_W;             //设置当前DMA传输的剩余数量，向下递减，该寄存器只能在DMA不工作时更改。
    211c:	400207b7          	lui	a5,0x40020
    2120:	04478793          	addi	a5,a5,68 # 40020044 <_eusrstack+0x2001b044>
    2124:	6709                	lui	a4,0x2
    2126:	4b870713          	addi	a4,a4,1208 # 24b8 <nvic_init+0x46>
    212a:	c3d8                	sw	a4,4(a5)
E:\GITKraken\Dual-core_Communication_Demo\Dual-core_Communication_Demo\MASTER\obj/../Libraries/seekfree_peripheral/SEEKFREE_MT9V03X.c:378
    MT9V03X_DMA_CH->CFGR |= DMA_CFGR1_EN;
    212c:	400207b7          	lui	a5,0x40020
    2130:	04478793          	addi	a5,a5,68 # 40020044 <_eusrstack+0x2001b044>
    2134:	4398                	lw	a4,0(a5)
    2136:	400207b7          	lui	a5,0x40020
    213a:	04478793          	addi	a5,a5,68 # 40020044 <_eusrstack+0x2001b044>
    213e:	00176713          	ori	a4,a4,1
    2142:	c398                	sw	a4,0(a5)
E:\GITKraken\Dual-core_Communication_Demo\Dual-core_Communication_Demo\MASTER\obj/../Libraries/seekfree_peripheral/SEEKFREE_MT9V03X.c:379
}
    2144:	0001                	nop
    2146:	4432                	lw	s0,12(sp)
    2148:	0141                	addi	sp,sp,16
    214a:	8082                	ret

0000214c <mt9v03x_dma>:
mt9v03x_dma():
E:\GITKraken\Dual-core_Communication_Demo\Dual-core_Communication_Demo\MASTER\obj/../Libraries/seekfree_peripheral/SEEKFREE_MT9V03X.c:389
//  @return     void
//  @since      v1.0
//  Sample usage:
//-------------------------------------------------------------------------------------------------------------------
void mt9v03x_dma(void)
{
    214c:	1141                	addi	sp,sp,-16
    214e:	c622                	sw	s0,12(sp)
    2150:	0800                	addi	s0,sp,16
E:\GITKraken\Dual-core_Communication_Demo\Dual-core_Communication_Demo\MASTER\obj/../Libraries/seekfree_peripheral/SEEKFREE_MT9V03X.c:390
    mt9v03x_finish_flag = 1;//一副图像从采集开始到采集结束耗时3.8MS左右(50FPS、188*120分辨率)
    2152:	4705                	li	a4,1
    2154:	82e184a3          	sb	a4,-2007(gp) # 20000099 <mt9v03x_finish_flag>
E:\GITKraken\Dual-core_Communication_Demo\Dual-core_Communication_Demo\MASTER\obj/../Libraries/seekfree_peripheral/SEEKFREE_MT9V03X.c:391
    MT9V03X_DMA_CH->CFGR &= (uint16)(~DMA_CFGR1_EN);   //关闭DMA1
    2158:	400207b7          	lui	a5,0x40020
    215c:	04478793          	addi	a5,a5,68 # 40020044 <_eusrstack+0x2001b044>
    2160:	4394                	lw	a3,0(a5)
    2162:	400207b7          	lui	a5,0x40020
    2166:	04478793          	addi	a5,a5,68 # 40020044 <_eusrstack+0x2001b044>
    216a:	6741                	lui	a4,0x10
    216c:	1779                	addi	a4,a4,-2
    216e:	8f75                	and	a4,a4,a3
    2170:	c398                	sw	a4,0(a5)
E:\GITKraken\Dual-core_Communication_Demo\Dual-core_Communication_Demo\MASTER\obj/../Libraries/seekfree_peripheral/SEEKFREE_MT9V03X.c:392
}
    2172:	0001                	nop
    2174:	4432                	lw	s0,12(sp)
    2176:	0141                	addi	sp,sp,16
    2178:	8082                	ret

0000217a <ov7725_cof_uart_interrupt>:
ov7725_cof_uart_interrupt():
E:\GITKraken\Dual-core_Communication_Demo\Dual-core_Communication_Demo\MASTER\obj/../Libraries/seekfree_peripheral/SEEKFREE_UART_7725.c:81
//  Sample usage:
//  @note       该函数在ISR文件 串口3中断程序被调用
//-------------------------------------------------------------------------------------------------------------------

void ov7725_cof_uart_interrupt(void)
{
    217a:	1141                	addi	sp,sp,-16
    217c:	c622                	sw	s0,12(sp)
    217e:	0800                	addi	s0,sp,16
E:\GITKraken\Dual-core_Communication_Demo\Dual-core_Communication_Demo\MASTER\obj/../Libraries/seekfree_peripheral/SEEKFREE_UART_7725.c:83

    ov7725_uart_receive[ov7725_uart_receive_num] = ((USART_TypeDef*)UARTN[OV7725_UART_COF_UART])->DATAR & 0x01FF;
    2180:	6791                	lui	a5,0x4
    2182:	6f878793          	addi	a5,a5,1784 # 46f8 <UARTN>
    2186:	43dc                	lw	a5,4(a5)
    2188:	0047d783          	lhu	a5,4(a5)
    218c:	01079713          	slli	a4,a5,0x10
    2190:	8341                	srli	a4,a4,0x10
    2192:	82f1c783          	lbu	a5,-2001(gp) # 2000009f <ov7725_uart_receive_num>
    2196:	86be                	mv	a3,a5
    2198:	0ff77713          	andi	a4,a4,255
    219c:	82c18793          	addi	a5,gp,-2004 # 2000009c <ov7725_uart_receive>
    21a0:	97b6                	add	a5,a5,a3
    21a2:	00e78023          	sb	a4,0(a5)
E:\GITKraken\Dual-core_Communication_Demo\Dual-core_Communication_Demo\MASTER\obj/../Libraries/seekfree_peripheral/SEEKFREE_UART_7725.c:84
    ov7725_uart_receive_num++;
    21a6:	82f1c783          	lbu	a5,-2001(gp) # 2000009f <ov7725_uart_receive_num>
    21aa:	0785                	addi	a5,a5,1
    21ac:	0ff7f713          	andi	a4,a5,255
    21b0:	82e187a3          	sb	a4,-2001(gp) # 2000009f <ov7725_uart_receive_num>
E:\GITKraken\Dual-core_Communication_Demo\Dual-core_Communication_Demo\MASTER\obj/../Libraries/seekfree_peripheral/SEEKFREE_UART_7725.c:86

    if(1==ov7725_uart_receive_num && 0XA5!=ov7725_uart_receive[0])  ov7725_uart_receive_num = 0;
    21b4:	82f1c703          	lbu	a4,-2001(gp) # 2000009f <ov7725_uart_receive_num>
    21b8:	4785                	li	a5,1
    21ba:	00f71a63          	bne	a4,a5,21ce <ov7725_cof_uart_interrupt+0x54>
E:\GITKraken\Dual-core_Communication_Demo\Dual-core_Communication_Demo\MASTER\obj/../Libraries/seekfree_peripheral/SEEKFREE_UART_7725.c:86 (discriminator 1)
    21be:	82c1c703          	lbu	a4,-2004(gp) # 2000009c <ov7725_uart_receive>
    21c2:	0a500793          	li	a5,165
    21c6:	00f70463          	beq	a4,a5,21ce <ov7725_cof_uart_interrupt+0x54>
E:\GITKraken\Dual-core_Communication_Demo\Dual-core_Communication_Demo\MASTER\obj/../Libraries/seekfree_peripheral/SEEKFREE_UART_7725.c:86 (discriminator 2)
    21ca:	820187a3          	sb	zero,-2001(gp) # 2000009f <ov7725_uart_receive_num>
E:\GITKraken\Dual-core_Communication_Demo\Dual-core_Communication_Demo\MASTER\obj/../Libraries/seekfree_peripheral/SEEKFREE_UART_7725.c:87
    if(3 == ov7725_uart_receive_num)
    21ce:	82f1c703          	lbu	a4,-2001(gp) # 2000009f <ov7725_uart_receive_num>
    21d2:	478d                	li	a5,3
    21d4:	00f71763          	bne	a4,a5,21e2 <ov7725_cof_uart_interrupt+0x68>
E:\GITKraken\Dual-core_Communication_Demo\Dual-core_Communication_Demo\MASTER\obj/../Libraries/seekfree_peripheral/SEEKFREE_UART_7725.c:89
    {
        ov7725_uart_receive_num = 0;
    21d8:	820187a3          	sb	zero,-2001(gp) # 2000009f <ov7725_uart_receive_num>
E:\GITKraken\Dual-core_Communication_Demo\Dual-core_Communication_Demo\MASTER\obj/../Libraries/seekfree_peripheral/SEEKFREE_UART_7725.c:90
        ov7725_uart_receive_flag = 1;
    21dc:	4705                	li	a4,1
    21de:	82e18823          	sb	a4,-2000(gp) # 200000a0 <ov7725_uart_receive_flag>
E:\GITKraken\Dual-core_Communication_Demo\Dual-core_Communication_Demo\MASTER\obj/../Libraries/seekfree_peripheral/SEEKFREE_UART_7725.c:92
    }
}
    21e2:	0001                	nop
    21e4:	4432                	lw	s0,12(sp)
    21e6:	0141                	addi	sp,sp,16
    21e8:	8082                	ret

000021ea <ov7725_uart_vsync>:
ov7725_uart_vsync():
E:\GITKraken\Dual-core_Communication_Demo\Dual-core_Communication_Demo\MASTER\obj/../Libraries/seekfree_peripheral/SEEKFREE_UART_7725.c:103
//  @since      v1.0
//  Sample usage:                   在isr.c里面先创建对应的中断函数，然后调用该函数(之后别忘记清除中断标志位)
//-------------------------------------------------------------------------------------------------------------------

void ov7725_uart_vsync(void)
{
    21ea:	1141                	addi	sp,sp,-16
    21ec:	c622                	sw	s0,12(sp)
    21ee:	0800                	addi	s0,sp,16
E:\GITKraken\Dual-core_Communication_Demo\Dual-core_Communication_Demo\MASTER\obj/../Libraries/seekfree_peripheral/SEEKFREE_UART_7725.c:104
    OV7725_UART_DMA_CH->CNTR = OV7725_UART_SIZE;             //设置当前DMA传输的剩余数量，向下递减，该寄存器只能在DMA不工作时更改。
    21f0:	400207b7          	lui	a5,0x40020
    21f4:	04478793          	addi	a5,a5,68 # 40020044 <_eusrstack+0x2001b044>
    21f8:	6705                	lui	a4,0x1
    21fa:	96070713          	addi	a4,a4,-1696 # 960 <EXTI_Init+0xb8>
    21fe:	c3d8                	sw	a4,4(a5)
E:\GITKraken\Dual-core_Communication_Demo\Dual-core_Communication_Demo\MASTER\obj/../Libraries/seekfree_peripheral/SEEKFREE_UART_7725.c:105
    OV7725_UART_DMA_CH->CFGR |= DMA_CFGR1_EN;                //开启DMA1
    2200:	400207b7          	lui	a5,0x40020
    2204:	04478793          	addi	a5,a5,68 # 40020044 <_eusrstack+0x2001b044>
    2208:	4398                	lw	a4,0(a5)
    220a:	400207b7          	lui	a5,0x40020
    220e:	04478793          	addi	a5,a5,68 # 40020044 <_eusrstack+0x2001b044>
    2212:	00176713          	ori	a4,a4,1
    2216:	c398                	sw	a4,0(a5)
E:\GITKraken\Dual-core_Communication_Demo\Dual-core_Communication_Demo\MASTER\obj/../Libraries/seekfree_peripheral/SEEKFREE_UART_7725.c:106
}
    2218:	0001                	nop
    221a:	4432                	lw	s0,12(sp)
    221c:	0141                	addi	sp,sp,16
    221e:	8082                	ret

00002220 <ov7725_uart_dma>:
ov7725_uart_dma():
E:\GITKraken\Dual-core_Communication_Demo\Dual-core_Communication_Demo\MASTER\obj/../Libraries/seekfree_peripheral/SEEKFREE_UART_7725.c:117
//  @return     void
//  @since      v1.0
//  Sample usage:                   在isr.c里面先创建对应的中断函数，然后调用该函数(之后别忘记清除中断标志位)
//-------------------------------------------------------------------------------------------------------------------
void ov7725_uart_dma(void)
{
    2220:	1141                	addi	sp,sp,-16
    2222:	c622                	sw	s0,12(sp)
    2224:	0800                	addi	s0,sp,16
E:\GITKraken\Dual-core_Communication_Demo\Dual-core_Communication_Demo\MASTER\obj/../Libraries/seekfree_peripheral/SEEKFREE_UART_7725.c:118
    ov7725_uart_finish_flag = 1;                             //摄像头数据采集置1
    2226:	4705                	li	a4,1
    2228:	82e188a3          	sb	a4,-1999(gp) # 200000a1 <ov7725_uart_finish_flag>
E:\GITKraken\Dual-core_Communication_Demo\Dual-core_Communication_Demo\MASTER\obj/../Libraries/seekfree_peripheral/SEEKFREE_UART_7725.c:119
    OV7725_UART_DMA_CH->CFGR &= (uint16)(~DMA_CFGR1_EN);     //关闭DMA1
    222c:	400207b7          	lui	a5,0x40020
    2230:	04478793          	addi	a5,a5,68 # 40020044 <_eusrstack+0x2001b044>
    2234:	4394                	lw	a3,0(a5)
    2236:	400207b7          	lui	a5,0x40020
    223a:	04478793          	addi	a5,a5,68 # 40020044 <_eusrstack+0x2001b044>
    223e:	6741                	lui	a4,0x10
    2240:	1779                	addi	a4,a4,-2
    2242:	8f75                	and	a4,a4,a3
    2244:	c398                	sw	a4,0(a5)
E:\GITKraken\Dual-core_Communication_Demo\Dual-core_Communication_Demo\MASTER\obj/../Libraries/seekfree_peripheral/SEEKFREE_UART_7725.c:120
}
    2246:	0001                	nop
    2248:	4432                	lw	s0,12(sp)
    224a:	0141                	addi	sp,sp,16
    224c:	8082                	ret

0000224e <gpio_init>:
gpio_init():
E:\GITKraken\Dual-core_Communication_Demo\Dual-core_Communication_Demo\MASTER\obj/../Libraries/seekfree_libraries/zf_gpio.c:40
//  @param      pinconf     引脚配置（可设置参数由zf_gpio.h文件内GPIOSPEED_enum与GPIOMODE_enum枚举值确定，多个条件使用 | 相或）
//  @return     void
//  Sample usage:           gpio_init(D0, GPO, 1, GPIO_PIN_CONFIG);//D0初始化为GPIO功能、输出模式、输出高电平、速度100MHZ 推挽输出
//-------------------------------------------------------------------------------------------------------------------
void gpio_init(PIN_enum pin, GPIODIR_enum dir, uint8 dat, uint32 pinconf)
{
    224e:	7179                	addi	sp,sp,-48
    2250:	d606                	sw	ra,44(sp)
    2252:	d422                	sw	s0,40(sp)
    2254:	1800                	addi	s0,sp,48
    2256:	fca42e23          	sw	a0,-36(s0)
    225a:	fcb42c23          	sw	a1,-40(s0)
    225e:	87b2                	mv	a5,a2
    2260:	fcd42823          	sw	a3,-48(s0)
    2264:	fcf40ba3          	sb	a5,-41(s0)
E:\GITKraken\Dual-core_Communication_Demo\Dual-core_Communication_Demo\MASTER\obj/../Libraries/seekfree_libraries/zf_gpio.c:42
    GPIO_InitTypeDef GPIO_InitStructure;
    uint8 io_group = (pin & 0xE0) >> 5;
    2268:	fdc42783          	lw	a5,-36(s0)
    226c:	8395                	srli	a5,a5,0x5
    226e:	0ff7f793          	andi	a5,a5,255
    2272:	8b9d                	andi	a5,a5,7
    2274:	fef407a3          	sb	a5,-17(s0)
E:\GITKraken\Dual-core_Communication_Demo\Dual-core_Communication_Demo\MASTER\obj/../Libraries/seekfree_libraries/zf_gpio.c:43
    uint8 io_pin = pin & 0x1F;
    2278:	fdc42783          	lw	a5,-36(s0)
    227c:	0ff7f793          	andi	a5,a5,255
    2280:	8bfd                	andi	a5,a5,31
    2282:	fef40723          	sb	a5,-18(s0)
E:\GITKraken\Dual-core_Communication_Demo\Dual-core_Communication_Demo\MASTER\obj/../Libraries/seekfree_libraries/zf_gpio.c:46


    if(PIN_NULL == pin) return;
    2286:	fdc42703          	lw	a4,-36(s0)
    228a:	08000793          	li	a5,128
    228e:	14f70d63          	beq	a4,a5,23e8 <gpio_init+0x19a>
E:\GITKraken\Dual-core_Communication_Demo\Dual-core_Communication_Demo\MASTER\obj/../Libraries/seekfree_libraries/zf_gpio.c:48
    //GPIO总线使能
    if(0 == (pin >> 5))      RCC_APB2PeriphClockCmd(RCC_APB2Periph_GPIOA, ENABLE);
    2292:	fdc42783          	lw	a5,-36(s0)
    2296:	8395                	srli	a5,a5,0x5
    2298:	e791                	bnez	a5,22a4 <gpio_init+0x56>
E:\GITKraken\Dual-core_Communication_Demo\Dual-core_Communication_Demo\MASTER\obj/../Libraries/seekfree_libraries/zf_gpio.c:48 (discriminator 1)
    229a:	4585                	li	a1,1
    229c:	4511                	li	a0,4
    229e:	f9dfe0ef          	jal	ra,123a <RCC_APB2PeriphClockCmd>
    22a2:	a861                	j	233a <gpio_init+0xec>
E:\GITKraken\Dual-core_Communication_Demo\Dual-core_Communication_Demo\MASTER\obj/../Libraries/seekfree_libraries/zf_gpio.c:49
    else if(1 == (pin >> 5)) RCC_APB2PeriphClockCmd(RCC_APB2Periph_GPIOB, ENABLE);
    22a4:	fdc42783          	lw	a5,-36(s0)
    22a8:	0057d713          	srli	a4,a5,0x5
    22ac:	4785                	li	a5,1
    22ae:	00f71763          	bne	a4,a5,22bc <gpio_init+0x6e>
E:\GITKraken\Dual-core_Communication_Demo\Dual-core_Communication_Demo\MASTER\obj/../Libraries/seekfree_libraries/zf_gpio.c:49 (discriminator 1)
    22b2:	4585                	li	a1,1
    22b4:	4521                	li	a0,8
    22b6:	f85fe0ef          	jal	ra,123a <RCC_APB2PeriphClockCmd>
    22ba:	a041                	j	233a <gpio_init+0xec>
E:\GITKraken\Dual-core_Communication_Demo\Dual-core_Communication_Demo\MASTER\obj/../Libraries/seekfree_libraries/zf_gpio.c:50
    else if(2 == (pin >> 5)) RCC_APB2PeriphClockCmd(RCC_APB2Periph_GPIOC, ENABLE);
    22bc:	fdc42783          	lw	a5,-36(s0)
    22c0:	0057d713          	srli	a4,a5,0x5
    22c4:	4789                	li	a5,2
    22c6:	00f71763          	bne	a4,a5,22d4 <gpio_init+0x86>
E:\GITKraken\Dual-core_Communication_Demo\Dual-core_Communication_Demo\MASTER\obj/../Libraries/seekfree_libraries/zf_gpio.c:50 (discriminator 1)
    22ca:	4585                	li	a1,1
    22cc:	4541                	li	a0,16
    22ce:	f6dfe0ef          	jal	ra,123a <RCC_APB2PeriphClockCmd>
    22d2:	a0a5                	j	233a <gpio_init+0xec>
E:\GITKraken\Dual-core_Communication_Demo\Dual-core_Communication_Demo\MASTER\obj/../Libraries/seekfree_libraries/zf_gpio.c:51
    else if(3 == (pin >> 5)) RCC_APB2PeriphClockCmd(RCC_APB2Periph_GPIOD, ENABLE);
    22d4:	fdc42783          	lw	a5,-36(s0)
    22d8:	0057d713          	srli	a4,a5,0x5
    22dc:	478d                	li	a5,3
    22de:	00f71863          	bne	a4,a5,22ee <gpio_init+0xa0>
E:\GITKraken\Dual-core_Communication_Demo\Dual-core_Communication_Demo\MASTER\obj/../Libraries/seekfree_libraries/zf_gpio.c:51 (discriminator 1)
    22e2:	4585                	li	a1,1
    22e4:	02000513          	li	a0,32
    22e8:	f53fe0ef          	jal	ra,123a <RCC_APB2PeriphClockCmd>
    22ec:	a0b9                	j	233a <gpio_init+0xec>
E:\GITKraken\Dual-core_Communication_Demo\Dual-core_Communication_Demo\MASTER\obj/../Libraries/seekfree_libraries/zf_gpio.c:52
    else if(4 == (pin >> 5)) RCC_APB2PeriphClockCmd(RCC_APB2Periph_GPIOE, ENABLE);
    22ee:	fdc42783          	lw	a5,-36(s0)
    22f2:	0057d713          	srli	a4,a5,0x5
    22f6:	4791                	li	a5,4
    22f8:	00f71863          	bne	a4,a5,2308 <gpio_init+0xba>
E:\GITKraken\Dual-core_Communication_Demo\Dual-core_Communication_Demo\MASTER\obj/../Libraries/seekfree_libraries/zf_gpio.c:52 (discriminator 1)
    22fc:	4585                	li	a1,1
    22fe:	04000513          	li	a0,64
    2302:	f39fe0ef          	jal	ra,123a <RCC_APB2PeriphClockCmd>
    2306:	a815                	j	233a <gpio_init+0xec>
E:\GITKraken\Dual-core_Communication_Demo\Dual-core_Communication_Demo\MASTER\obj/../Libraries/seekfree_libraries/zf_gpio.c:53
    else if(5 == (pin >> 5)) RCC_APB2PeriphClockCmd(RCC_APB2Periph_GPIOF, ENABLE);
    2308:	fdc42783          	lw	a5,-36(s0)
    230c:	0057d713          	srli	a4,a5,0x5
    2310:	4795                	li	a5,5
    2312:	00f71863          	bne	a4,a5,2322 <gpio_init+0xd4>
E:\GITKraken\Dual-core_Communication_Demo\Dual-core_Communication_Demo\MASTER\obj/../Libraries/seekfree_libraries/zf_gpio.c:53 (discriminator 1)
    2316:	4585                	li	a1,1
    2318:	08000513          	li	a0,128
    231c:	f1ffe0ef          	jal	ra,123a <RCC_APB2PeriphClockCmd>
    2320:	a829                	j	233a <gpio_init+0xec>
E:\GITKraken\Dual-core_Communication_Demo\Dual-core_Communication_Demo\MASTER\obj/../Libraries/seekfree_libraries/zf_gpio.c:54
    else if(6 == (pin >> 5)) RCC_APB2PeriphClockCmd(RCC_APB2Periph_GPIOG, ENABLE);
    2322:	fdc42783          	lw	a5,-36(s0)
    2326:	0057d713          	srli	a4,a5,0x5
    232a:	4799                	li	a5,6
    232c:	00f71763          	bne	a4,a5,233a <gpio_init+0xec>
E:\GITKraken\Dual-core_Communication_Demo\Dual-core_Communication_Demo\MASTER\obj/../Libraries/seekfree_libraries/zf_gpio.c:54 (discriminator 1)
    2330:	4585                	li	a1,1
    2332:	10000513          	li	a0,256
    2336:	f05fe0ef          	jal	ra,123a <RCC_APB2PeriphClockCmd>
E:\GITKraken\Dual-core_Communication_Demo\Dual-core_Communication_Demo\MASTER\obj/../Libraries/seekfree_libraries/zf_gpio.c:58


    //设置引脚号
    GPIO_InitStructure.GPIO_Pin = (uint16)(1 << io_pin);
    233a:	fee44783          	lbu	a5,-18(s0)
    233e:	4705                	li	a4,1
    2340:	00f717b3          	sll	a5,a4,a5
    2344:	07c2                	slli	a5,a5,0x10
    2346:	83c1                	srli	a5,a5,0x10
    2348:	fef41023          	sh	a5,-32(s0)
E:\GITKraken\Dual-core_Communication_Demo\Dual-core_Communication_Demo\MASTER\obj/../Libraries/seekfree_libraries/zf_gpio.c:60

    if(GPO == dir)
    234c:	fd842703          	lw	a4,-40(s0)
    2350:	4785                	li	a5,1
    2352:	02f71763          	bne	a4,a5,2380 <gpio_init+0x132>
E:\GITKraken\Dual-core_Communication_Demo\Dual-core_Communication_Demo\MASTER\obj/../Libraries/seekfree_libraries/zf_gpio.c:63
    {
        //只有输出需要设置速度
        if((uint16)pinconf >> 8 == 0) GPIO_InitStructure.GPIO_Speed = (GPIOSpeed_TypeDef)(GPIO_Speed_50MHz);  //防止没有填写这个参数,默认设置50Mhz
    2356:	fd042783          	lw	a5,-48(s0)
    235a:	07c2                	slli	a5,a5,0x10
    235c:	83c1                	srli	a5,a5,0x10
    235e:	83a1                	srli	a5,a5,0x8
    2360:	07c2                	slli	a5,a5,0x10
    2362:	83c1                	srli	a5,a5,0x10
    2364:	e789                	bnez	a5,236e <gpio_init+0x120>
E:\GITKraken\Dual-core_Communication_Demo\Dual-core_Communication_Demo\MASTER\obj/../Libraries/seekfree_libraries/zf_gpio.c:63 (discriminator 1)
    2366:	478d                	li	a5,3
    2368:	fef42223          	sw	a5,-28(s0)
    236c:	a811                	j	2380 <gpio_init+0x132>
E:\GITKraken\Dual-core_Communication_Demo\Dual-core_Communication_Demo\MASTER\obj/../Libraries/seekfree_libraries/zf_gpio.c:64
        else GPIO_InitStructure.GPIO_Speed = (GPIOSpeed_TypeDef)((uint16)pinconf >> 8);                       //已经填写了该参数。根据值来设置
    236e:	fd042783          	lw	a5,-48(s0)
    2372:	07c2                	slli	a5,a5,0x10
    2374:	83c1                	srli	a5,a5,0x10
    2376:	83a1                	srli	a5,a5,0x8
    2378:	07c2                	slli	a5,a5,0x10
    237a:	83c1                	srli	a5,a5,0x10
    237c:	fef42223          	sw	a5,-28(s0)
E:\GITKraken\Dual-core_Communication_Demo\Dual-core_Communication_Demo\MASTER\obj/../Libraries/seekfree_libraries/zf_gpio.c:68
    }

    //设置模式
    GPIO_InitStructure.GPIO_Mode = (GPIOMode_TypeDef)((uint16)pinconf & 0xff);
    2380:	fd042783          	lw	a5,-48(s0)
    2384:	07c2                	slli	a5,a5,0x10
    2386:	83c1                	srli	a5,a5,0x10
    2388:	0ff7f793          	andi	a5,a5,255
    238c:	fef42423          	sw	a5,-24(s0)
E:\GITKraken\Dual-core_Communication_Demo\Dual-core_Communication_Demo\MASTER\obj/../Libraries/seekfree_libraries/zf_gpio.c:69
    GPIO_Init((GPIO_TypeDef *)(GPION[io_group]), &GPIO_InitStructure);
    2390:	fef44703          	lbu	a4,-17(s0)
    2394:	6791                	lui	a5,0x4
    2396:	070a                	slli	a4,a4,0x2
    2398:	6d878793          	addi	a5,a5,1752 # 46d8 <GPION>
    239c:	97ba                	add	a5,a5,a4
    239e:	439c                	lw	a5,0(a5)
    23a0:	873e                	mv	a4,a5
    23a2:	fe040793          	addi	a5,s0,-32
    23a6:	85be                	mv	a1,a5
    23a8:	853a                	mv	a0,a4
    23aa:	ee4fe0ef          	jal	ra,a8e <GPIO_Init>
E:\GITKraken\Dual-core_Communication_Demo\Dual-core_Communication_Demo\MASTER\obj/../Libraries/seekfree_libraries/zf_gpio.c:71

    if(GPO == dir)
    23ae:	fd842703          	lw	a4,-40(s0)
    23b2:	4785                	li	a5,1
    23b4:	02f71b63          	bne	a4,a5,23ea <gpio_init+0x19c>
E:\GITKraken\Dual-core_Communication_Demo\Dual-core_Communication_Demo\MASTER\obj/../Libraries/seekfree_libraries/zf_gpio.c:74
    {
        //只有输出需要设置引脚状态
        GPIO_WriteBit((GPIO_TypeDef *)(GPION[io_group]), (uint16)(1 << io_pin), dat);
    23b8:	fef44703          	lbu	a4,-17(s0)
    23bc:	6791                	lui	a5,0x4
    23be:	070a                	slli	a4,a4,0x2
    23c0:	6d878793          	addi	a5,a5,1752 # 46d8 <GPION>
    23c4:	97ba                	add	a5,a5,a4
    23c6:	439c                	lw	a5,0(a5)
    23c8:	86be                	mv	a3,a5
    23ca:	fee44783          	lbu	a5,-18(s0)
    23ce:	4705                	li	a4,1
    23d0:	00f717b3          	sll	a5,a4,a5
    23d4:	07c2                	slli	a5,a5,0x10
    23d6:	83c1                	srli	a5,a5,0x10
    23d8:	fd744703          	lbu	a4,-41(s0)
    23dc:	863a                	mv	a2,a4
    23de:	85be                	mv	a1,a5
    23e0:	8536                	mv	a0,a3
    23e2:	8d7fe0ef          	jal	ra,cb8 <GPIO_WriteBit>
    23e6:	a011                	j	23ea <gpio_init+0x19c>
E:\GITKraken\Dual-core_Communication_Demo\Dual-core_Communication_Demo\MASTER\obj/../Libraries/seekfree_libraries/zf_gpio.c:46
    if(PIN_NULL == pin) return;
    23e8:	0001                	nop
E:\GITKraken\Dual-core_Communication_Demo\Dual-core_Communication_Demo\MASTER\obj/../Libraries/seekfree_libraries/zf_gpio.c:76
    }
}
    23ea:	50b2                	lw	ra,44(sp)
    23ec:	5422                	lw	s0,40(sp)
    23ee:	6145                	addi	sp,sp,48
    23f0:	8082                	ret

000023f2 <gpio_interrupt_init>:
gpio_interrupt_init():
E:\GITKraken\Dual-core_Communication_Demo\Dual-core_Communication_Demo\MASTER\obj/../Libraries/seekfree_libraries/zf_gpio.c:141
//  @param      trigger     中断触发方式 选择范围参见h文件TRIGGER_enum枚举
//  @return     void
//  Sample usage:           gpio_interrupt_init(D0, RISING, GPIO_INT_CONFIG);//D0上升沿中断
//-------------------------------------------------------------------------------------------------------------------
void gpio_interrupt_init(PIN_enum pin,TRIGGER_enum trigger, uint32 pinconf)
{
    23f2:	7179                	addi	sp,sp,-48
    23f4:	d606                	sw	ra,44(sp)
    23f6:	d422                	sw	s0,40(sp)
    23f8:	1800                	addi	s0,sp,48
    23fa:	fca42e23          	sw	a0,-36(s0)
    23fe:	fcb42c23          	sw	a1,-40(s0)
    2402:	fcc42a23          	sw	a2,-44(s0)
E:\GITKraken\Dual-core_Communication_Demo\Dual-core_Communication_Demo\MASTER\obj/../Libraries/seekfree_libraries/zf_gpio.c:143
    EXTI_InitTypeDef EXTI_InitStructure;
    RCC_APB2PeriphClockCmd(RCC_APB2Periph_AFIO,ENABLE);
    2406:	4585                	li	a1,1
    2408:	4505                	li	a0,1
    240a:	e31fe0ef          	jal	ra,123a <RCC_APB2PeriphClockCmd>
E:\GITKraken\Dual-core_Communication_Demo\Dual-core_Communication_Demo\MASTER\obj/../Libraries/seekfree_libraries/zf_gpio.c:144
    gpio_init(pin, GPI, 0, pinconf);
    240e:	fd442683          	lw	a3,-44(s0)
    2412:	4601                	li	a2,0
    2414:	4581                	li	a1,0
    2416:	fdc42503          	lw	a0,-36(s0)
    241a:	3d15                	jal	224e <gpio_init>
E:\GITKraken\Dual-core_Communication_Demo\Dual-core_Communication_Demo\MASTER\obj/../Libraries/seekfree_libraries/zf_gpio.c:145
    GPIO_EXTILineConfig(pin >> 5, pin & 0x1F);              //引脚中断号配置
    241c:	fdc42783          	lw	a5,-36(s0)
    2420:	8395                	srli	a5,a5,0x5
    2422:	0ff7f713          	andi	a4,a5,255
    2426:	fdc42783          	lw	a5,-36(s0)
    242a:	0ff7f793          	andi	a5,a5,255
    242e:	8bfd                	andi	a5,a5,31
    2430:	0ff7f793          	andi	a5,a5,255
    2434:	85be                	mv	a1,a5
    2436:	853a                	mv	a0,a4
    2438:	9f5fe0ef          	jal	ra,e2c <GPIO_EXTILineConfig>
E:\GITKraken\Dual-core_Communication_Demo\Dual-core_Communication_Demo\MASTER\obj/../Libraries/seekfree_libraries/zf_gpio.c:146
    EXTI_InitStructure.EXTI_Line = 1 << (pin & 0x1F);       //引脚号配置
    243c:	fdc42783          	lw	a5,-36(s0)
    2440:	8bfd                	andi	a5,a5,31
    2442:	4705                	li	a4,1
    2444:	00f717b3          	sll	a5,a4,a5
    2448:	fef42023          	sw	a5,-32(s0)
E:\GITKraken\Dual-core_Communication_Demo\Dual-core_Communication_Demo\MASTER\obj/../Libraries/seekfree_libraries/zf_gpio.c:147
    EXTI_InitStructure.EXTI_Mode = EXTI_Mode_Interrupt;     //触发模式
    244c:	fe042223          	sw	zero,-28(s0)
E:\GITKraken\Dual-core_Communication_Demo\Dual-core_Communication_Demo\MASTER\obj/../Libraries/seekfree_libraries/zf_gpio.c:148
    EXTI_InitStructure.EXTI_Trigger = trigger;              //触发方式
    2450:	fd842783          	lw	a5,-40(s0)
    2454:	fef42423          	sw	a5,-24(s0)
E:\GITKraken\Dual-core_Communication_Demo\Dual-core_Communication_Demo\MASTER\obj/../Libraries/seekfree_libraries/zf_gpio.c:149
    EXTI_InitStructure.EXTI_LineCmd = ENABLE;               //使能或者失能
    2458:	4785                	li	a5,1
    245a:	fef42623          	sw	a5,-20(s0)
E:\GITKraken\Dual-core_Communication_Demo\Dual-core_Communication_Demo\MASTER\obj/../Libraries/seekfree_libraries/zf_gpio.c:150
    EXTI_Init(&EXTI_InitStructure);
    245e:	fe040793          	addi	a5,s0,-32
    2462:	853e                	mv	a0,a5
    2464:	c44fe0ef          	jal	ra,8a8 <EXTI_Init>
E:\GITKraken\Dual-core_Communication_Demo\Dual-core_Communication_Demo\MASTER\obj/../Libraries/seekfree_libraries/zf_gpio.c:151
}
    2468:	0001                	nop
    246a:	50b2                	lw	ra,44(sp)
    246c:	5422                	lw	s0,40(sp)
    246e:	6145                	addi	sp,sp,48
    2470:	8082                	ret

00002472 <nvic_init>:
nvic_init():
E:\GITKraken\Dual-core_Communication_Demo\Dual-core_Communication_Demo\MASTER\obj/../Libraries/seekfree_libraries/zf_nvic.c:38
//  @param      status                      使能或者失能
//  @return     void
//  Sample usage:                           nvic_init(EXTI0_IRQn,0, 0, ENABLE); //外部中断0使能,抢占优先级最高，次优先级最高。
//-------------------------------------------------------------------------------------------------------------------
void nvic_init(IRQn_Type irqn,uint8 preemption_priority, uint8 sub_priority,uint8 status)
{
    2472:	7179                	addi	sp,sp,-48
    2474:	d606                	sw	ra,44(sp)
    2476:	d422                	sw	s0,40(sp)
    2478:	1800                	addi	s0,sp,48
    247a:	fca42e23          	sw	a0,-36(s0)
    247e:	87ae                	mv	a5,a1
    2480:	8736                	mv	a4,a3
    2482:	fcf40da3          	sb	a5,-37(s0)
    2486:	87b2                	mv	a5,a2
    2488:	fcf40d23          	sb	a5,-38(s0)
    248c:	87ba                	mv	a5,a4
    248e:	fcf40ca3          	sb	a5,-39(s0)
E:\GITKraken\Dual-core_Communication_Demo\Dual-core_Communication_Demo\MASTER\obj/../Libraries/seekfree_libraries/zf_nvic.c:41
    NVIC_InitTypeDef NVIC_InitStructure;

    NVIC_InitStructure.NVIC_IRQChannel = irqn;                                  //中断号设置
    2492:	fdc42783          	lw	a5,-36(s0)
    2496:	0ff7f793          	andi	a5,a5,255
    249a:	fef40423          	sb	a5,-24(s0)
E:\GITKraken\Dual-core_Communication_Demo\Dual-core_Communication_Demo\MASTER\obj/../Libraries/seekfree_libraries/zf_nvic.c:42
    NVIC_InitStructure.NVIC_IRQChannelPreemptionPriority=preemption_priority;   //抢占优先级值越小，优先级越高
    249e:	fdb44783          	lbu	a5,-37(s0)
    24a2:	fef404a3          	sb	a5,-23(s0)
E:\GITKraken\Dual-core_Communication_Demo\Dual-core_Communication_Demo\MASTER\obj/../Libraries/seekfree_libraries/zf_nvic.c:43
    NVIC_InitStructure.NVIC_IRQChannelSubPriority = sub_priority;               //次优先级值越小，优先级越高
    24a6:	fda44783          	lbu	a5,-38(s0)
    24aa:	fef40523          	sb	a5,-22(s0)
E:\GITKraken\Dual-core_Communication_Demo\Dual-core_Communication_Demo\MASTER\obj/../Libraries/seekfree_libraries/zf_nvic.c:44
    NVIC_InitStructure.NVIC_IRQChannelCmd = status;                             //使能
    24ae:	fd944783          	lbu	a5,-39(s0)
    24b2:	fef42623          	sw	a5,-20(s0)
E:\GITKraken\Dual-core_Communication_Demo\Dual-core_Communication_Demo\MASTER\obj/../Libraries/seekfree_libraries/zf_nvic.c:45
    NVIC_Init(&NVIC_InitStructure);
    24b6:	fe840793          	addi	a5,s0,-24
    24ba:	853e                	mv	a0,a5
    24bc:	aa1fe0ef          	jal	ra,f5c <NVIC_Init>
E:\GITKraken\Dual-core_Communication_Demo\Dual-core_Communication_Demo\MASTER\obj/../Libraries/seekfree_libraries/zf_nvic.c:48

    //保存状态值
    irq_status.ienr0 |= (PFIC->ISR[0] & 0xFFFFF000);    //[31:12]
    24c0:	e000e7b7          	lui	a5,0xe000e
    24c4:	4398                	lw	a4,0(a5)
    24c6:	77fd                	lui	a5,0xfffff
    24c8:	8f7d                	and	a4,a4,a5
    24ca:	8501a783          	lw	a5,-1968(gp) # 200000c0 <irq_status>
    24ce:	8f5d                	or	a4,a4,a5
    24d0:	84e1a823          	sw	a4,-1968(gp) # 200000c0 <irq_status>
E:\GITKraken\Dual-core_Communication_Demo\Dual-core_Communication_Demo\MASTER\obj/../Libraries/seekfree_libraries/zf_nvic.c:49
    irq_status.ienr1 |= (PFIC->ISR[1] & 0x0FFFFFFF);    //[27:0]
    24d4:	e000e7b7          	lui	a5,0xe000e
    24d8:	43d8                	lw	a4,4(a5)
    24da:	100007b7          	lui	a5,0x10000
    24de:	17fd                	addi	a5,a5,-1
    24e0:	8f7d                	and	a4,a4,a5
    24e2:	85018793          	addi	a5,gp,-1968 # 200000c0 <irq_status>
    24e6:	43dc                	lw	a5,4(a5)
    24e8:	8f5d                	or	a4,a4,a5
    24ea:	85018793          	addi	a5,gp,-1968 # 200000c0 <irq_status>
    24ee:	c3d8                	sw	a4,4(a5)
E:\GITKraken\Dual-core_Communication_Demo\Dual-core_Communication_Demo\MASTER\obj/../Libraries/seekfree_libraries/zf_nvic.c:50
    if(irq_status.flag == 1)
    24f0:	85018793          	addi	a5,gp,-1968 # 200000c0 <irq_status>
    24f4:	0087c703          	lbu	a4,8(a5) # 10000008 <_data_lma+0xfffb824>
    24f8:	4785                	li	a5,1
    24fa:	00f71363          	bne	a4,a5,2500 <nvic_init+0x8e>
E:\GITKraken\Dual-core_Communication_Demo\Dual-core_Communication_Demo\MASTER\obj/../Libraries/seekfree_libraries/zf_nvic.c:52
    {
        close_all_irq();
    24fe:	2031                	jal	250a <close_all_irq>
E:\GITKraken\Dual-core_Communication_Demo\Dual-core_Communication_Demo\MASTER\obj/../Libraries/seekfree_libraries/zf_nvic.c:54
    }
}
    2500:	0001                	nop
    2502:	50b2                	lw	ra,44(sp)
    2504:	5422                	lw	s0,40(sp)
    2506:	6145                	addi	sp,sp,48
    2508:	8082                	ret

0000250a <close_all_irq>:
close_all_irq():
E:\GITKraken\Dual-core_Communication_Demo\Dual-core_Communication_Demo\MASTER\obj/../Libraries/seekfree_libraries/zf_nvic.c:63
//  @return     void
//  @since      v1.0
//  Sample usage:
//-------------------------------------------------------------------------------------------------------------------
void close_all_irq(void)
{
    250a:	1141                	addi	sp,sp,-16
    250c:	c622                	sw	s0,12(sp)
    250e:	0800                	addi	s0,sp,16
E:\GITKraken\Dual-core_Communication_Demo\Dual-core_Communication_Demo\MASTER\obj/../Libraries/seekfree_libraries/zf_nvic.c:65
    //写1，清空状态
    PFIC->IRER[0] = 0xffffffff;
    2510:	e000e7b7          	lui	a5,0xe000e
    2514:	577d                	li	a4,-1
    2516:	18e7a023          	sw	a4,384(a5) # e000e180 <_eusrstack+0xc0009180>
E:\GITKraken\Dual-core_Communication_Demo\Dual-core_Communication_Demo\MASTER\obj/../Libraries/seekfree_libraries/zf_nvic.c:66
    PFIC->IRER[1] = 0xffffffff;
    251a:	e000e7b7          	lui	a5,0xe000e
    251e:	577d                	li	a4,-1
    2520:	18e7a223          	sw	a4,388(a5) # e000e184 <_eusrstack+0xc0009184>
E:\GITKraken\Dual-core_Communication_Demo\Dual-core_Communication_Demo\MASTER\obj/../Libraries/seekfree_libraries/zf_nvic.c:67
}
    2524:	0001                	nop
    2526:	4432                	lw	s0,12(sp)
    2528:	0141                	addi	sp,sp,16
    252a:	8082                	ret

0000252c <sys_recover_irq>:
sys_recover_irq():
E:\GITKraken\Dual-core_Communication_Demo\Dual-core_Communication_Demo\MASTER\obj/../Libraries/seekfree_libraries/zf_nvic.c:77
//  @return     void
//  @since      v1.0
//  Sample usage:
//-------------------------------------------------------------------------------------------------------------------
void sys_recover_irq(void)
{
    252c:	1141                	addi	sp,sp,-16
    252e:	c622                	sw	s0,12(sp)
    2530:	0800                	addi	s0,sp,16
E:\GITKraken\Dual-core_Communication_Demo\Dual-core_Communication_Demo\MASTER\obj/../Libraries/seekfree_libraries/zf_nvic.c:78
    PFIC->IENR[0] = irq_status.ienr0;
    2532:	e000e7b7          	lui	a5,0xe000e
    2536:	8501a703          	lw	a4,-1968(gp) # 200000c0 <irq_status>
    253a:	10e7a023          	sw	a4,256(a5) # e000e100 <_eusrstack+0xc0009100>
E:\GITKraken\Dual-core_Communication_Demo\Dual-core_Communication_Demo\MASTER\obj/../Libraries/seekfree_libraries/zf_nvic.c:79
    PFIC->IENR[1] = irq_status.ienr1;
    253e:	e000e7b7          	lui	a5,0xe000e
    2542:	85018713          	addi	a4,gp,-1968 # 200000c0 <irq_status>
    2546:	4358                	lw	a4,4(a4)
    2548:	10e7a223          	sw	a4,260(a5) # e000e104 <_eusrstack+0xc0009104>
E:\GITKraken\Dual-core_Communication_Demo\Dual-core_Communication_Demo\MASTER\obj/../Libraries/seekfree_libraries/zf_nvic.c:80
}
    254c:	0001                	nop
    254e:	4432                	lw	s0,12(sp)
    2550:	0141                	addi	sp,sp,16
    2552:	8082                	ret

00002554 <DisableGlobalIRQ>:
DisableGlobalIRQ():
E:\GITKraken\Dual-core_Communication_Demo\Dual-core_Communication_Demo\MASTER\obj/../Libraries/seekfree_libraries/zf_nvic.c:90
//  @return     void
//  @since      v1.0
//  Sample usage:
//-------------------------------------------------------------------------------------------------------------------
uint8 DisableGlobalIRQ(void)
{
    2554:	1101                	addi	sp,sp,-32
    2556:	ce06                	sw	ra,28(sp)
    2558:	cc22                	sw	s0,24(sp)
    255a:	1000                	addi	s0,sp,32
E:\GITKraken\Dual-core_Communication_Demo\Dual-core_Communication_Demo\MASTER\obj/../Libraries/seekfree_libraries/zf_nvic.c:92
    uint8 state;
    irq_status.flag = 1;
    255c:	85018793          	addi	a5,gp,-1968 # 200000c0 <irq_status>
    2560:	4705                	li	a4,1
    2562:	00e78423          	sb	a4,8(a5)
E:\GITKraken\Dual-core_Communication_Demo\Dual-core_Communication_Demo\MASTER\obj/../Libraries/seekfree_libraries/zf_nvic.c:93
    if((irq_status.ienr0 == 0) && (irq_status.ienr1 == 0))   state = 0;  //没有就返回0
    2566:	8501a783          	lw	a5,-1968(gp) # 200000c0 <irq_status>
    256a:	eb81                	bnez	a5,257a <DisableGlobalIRQ+0x26>
E:\GITKraken\Dual-core_Communication_Demo\Dual-core_Communication_Demo\MASTER\obj/../Libraries/seekfree_libraries/zf_nvic.c:93 (discriminator 1)
    256c:	85018793          	addi	a5,gp,-1968 # 200000c0 <irq_status>
    2570:	43dc                	lw	a5,4(a5)
    2572:	e781                	bnez	a5,257a <DisableGlobalIRQ+0x26>
E:\GITKraken\Dual-core_Communication_Demo\Dual-core_Communication_Demo\MASTER\obj/../Libraries/seekfree_libraries/zf_nvic.c:93 (discriminator 2)
    2574:	fe0407a3          	sb	zero,-17(s0)
    2578:	a021                	j	2580 <DisableGlobalIRQ+0x2c>
E:\GITKraken\Dual-core_Communication_Demo\Dual-core_Communication_Demo\MASTER\obj/../Libraries/seekfree_libraries/zf_nvic.c:94
    else state = 1;  //有中断就返回1
    257a:	4785                	li	a5,1
    257c:	fef407a3          	sb	a5,-17(s0)
E:\GITKraken\Dual-core_Communication_Demo\Dual-core_Communication_Demo\MASTER\obj/../Libraries/seekfree_libraries/zf_nvic.c:95
    close_all_irq();
    2580:	3769                	jal	250a <close_all_irq>
E:\GITKraken\Dual-core_Communication_Demo\Dual-core_Communication_Demo\MASTER\obj/../Libraries/seekfree_libraries/zf_nvic.c:96
    return state;
    2582:	fef44783          	lbu	a5,-17(s0)
E:\GITKraken\Dual-core_Communication_Demo\Dual-core_Communication_Demo\MASTER\obj/../Libraries/seekfree_libraries/zf_nvic.c:97
}
    2586:	853e                	mv	a0,a5
    2588:	40f2                	lw	ra,28(sp)
    258a:	4462                	lw	s0,24(sp)
    258c:	6105                	addi	sp,sp,32
    258e:	8082                	ret

00002590 <EnableGlobalIRQ>:
EnableGlobalIRQ():
E:\GITKraken\Dual-core_Communication_Demo\Dual-core_Communication_Demo\MASTER\obj/../Libraries/seekfree_libraries/zf_nvic.c:107
//  @return     void
//  @since      v1.0
//  Sample usage:
//-------------------------------------------------------------------------------------------------------------------
void EnableGlobalIRQ(uint8 state)
{
    2590:	1101                	addi	sp,sp,-32
    2592:	ce06                	sw	ra,28(sp)
    2594:	cc22                	sw	s0,24(sp)
    2596:	1000                	addi	s0,sp,32
    2598:	87aa                	mv	a5,a0
    259a:	fef407a3          	sb	a5,-17(s0)
E:\GITKraken\Dual-core_Communication_Demo\Dual-core_Communication_Demo\MASTER\obj/../Libraries/seekfree_libraries/zf_nvic.c:108
    if(state == 0)
    259e:	fef44783          	lbu	a5,-17(s0)
    25a2:	e791                	bnez	a5,25ae <EnableGlobalIRQ+0x1e>
E:\GITKraken\Dual-core_Communication_Demo\Dual-core_Communication_Demo\MASTER\obj/../Libraries/seekfree_libraries/zf_nvic.c:110
    {
        irq_status.flag = 0;
    25a4:	85018793          	addi	a5,gp,-1968 # 200000c0 <irq_status>
    25a8:	00078423          	sb	zero,8(a5)
E:\GITKraken\Dual-core_Communication_Demo\Dual-core_Communication_Demo\MASTER\obj/../Libraries/seekfree_libraries/zf_nvic.c:111
        sys_recover_irq();
    25ac:	3741                	jal	252c <sys_recover_irq>
E:\GITKraken\Dual-core_Communication_Demo\Dual-core_Communication_Demo\MASTER\obj/../Libraries/seekfree_libraries/zf_nvic.c:113
    }
}
    25ae:	0001                	nop
    25b0:	40f2                	lw	ra,28(sp)
    25b2:	4462                	lw	s0,24(sp)
    25b4:	6105                	addi	sp,sp,32
    25b6:	8082                	ret

000025b8 <spi_gpio_init>:
spi_gpio_init():
E:\GITKraken\Dual-core_Communication_Demo\Dual-core_Communication_Demo\MASTER\obj/../Libraries/seekfree_libraries/zf_spi.c:41
//  @param      cs_pin      片选引脚(可选择范围由common.h内PIN_enum枚举值确定)
//  @return     void
//  Sample usage:           内部使用  用户无需关心
//-------------------------------------------------------------------------------------------------------------------
void spi_gpio_init(SPI_PIN_enum sck_pin, SPI_PIN_enum mosi_pin, SPI_PIN_enum miso_pin, PIN_enum cs_pin)
{
    25b8:	1101                	addi	sp,sp,-32
    25ba:	ce06                	sw	ra,28(sp)
    25bc:	cc22                	sw	s0,24(sp)
    25be:	1000                	addi	s0,sp,32
    25c0:	fea42623          	sw	a0,-20(s0)
    25c4:	feb42423          	sw	a1,-24(s0)
    25c8:	fec42223          	sw	a2,-28(s0)
    25cc:	fed42023          	sw	a3,-32(s0)
E:\GITKraken\Dual-core_Communication_Demo\Dual-core_Communication_Demo\MASTER\obj/../Libraries/seekfree_libraries/zf_spi.c:42
    if(SPI1_SCK_PA5 == sck_pin) gpio_init(A5, GPO, 1, SPEED_50MHZ|OUT_AF_PP);
    25d0:	fec42783          	lw	a5,-20(s0)
    25d4:	eb81                	bnez	a5,25e4 <spi_gpio_init+0x2c>
E:\GITKraken\Dual-core_Communication_Demo\Dual-core_Communication_Demo\MASTER\obj/../Libraries/seekfree_libraries/zf_spi.c:42 (discriminator 1)
    25d6:	31800693          	li	a3,792
    25da:	4605                	li	a2,1
    25dc:	4585                	li	a1,1
    25de:	4515                	li	a0,5
    25e0:	31bd                	jal	224e <gpio_init>
    25e2:	a899                	j	2638 <spi_gpio_init+0x80>
E:\GITKraken\Dual-core_Communication_Demo\Dual-core_Communication_Demo\MASTER\obj/../Libraries/seekfree_libraries/zf_spi.c:43
    else if(SPI1_SCK_PB3 == sck_pin) gpio_init(B3, GPO, 1, SPEED_50MHZ|OUT_AF_PP);
    25e4:	fec42703          	lw	a4,-20(s0)
    25e8:	47c1                	li	a5,16
    25ea:	00f71b63          	bne	a4,a5,2600 <spi_gpio_init+0x48>
E:\GITKraken\Dual-core_Communication_Demo\Dual-core_Communication_Demo\MASTER\obj/../Libraries/seekfree_libraries/zf_spi.c:43 (discriminator 1)
    25ee:	31800693          	li	a3,792
    25f2:	4605                	li	a2,1
    25f4:	4585                	li	a1,1
    25f6:	02300513          	li	a0,35
    25fa:	c55ff0ef          	jal	ra,224e <gpio_init>
    25fe:	a82d                	j	2638 <spi_gpio_init+0x80>
E:\GITKraken\Dual-core_Communication_Demo\Dual-core_Communication_Demo\MASTER\obj/../Libraries/seekfree_libraries/zf_spi.c:44
    else if(SPI2_SCK_PB13 == sck_pin) gpio_init(B13, GPO, 1, SPEED_50MHZ|OUT_AF_PP);
    2600:	fec42703          	lw	a4,-20(s0)
    2604:	02000793          	li	a5,32
    2608:	00f71b63          	bne	a4,a5,261e <spi_gpio_init+0x66>
E:\GITKraken\Dual-core_Communication_Demo\Dual-core_Communication_Demo\MASTER\obj/../Libraries/seekfree_libraries/zf_spi.c:44 (discriminator 1)
    260c:	31800693          	li	a3,792
    2610:	4605                	li	a2,1
    2612:	4585                	li	a1,1
    2614:	02d00513          	li	a0,45
    2618:	c37ff0ef          	jal	ra,224e <gpio_init>
    261c:	a831                	j	2638 <spi_gpio_init+0x80>
E:\GITKraken\Dual-core_Communication_Demo\Dual-core_Communication_Demo\MASTER\obj/../Libraries/seekfree_libraries/zf_spi.c:45
    else assert(0);         //无此参数进入断言
    261e:	6791                	lui	a5,0x4
    2620:	0b878693          	addi	a3,a5,184 # 40b8 <_exit+0x4>
    2624:	6791                	lui	a5,0x4
    2626:	6e878613          	addi	a2,a5,1768 # 46e8 <__func__.3348>
    262a:	02d00593          	li	a1,45
    262e:	6791                	lui	a5,0x4
    2630:	0bc78513          	addi	a0,a5,188 # 40bc <_exit+0x8>
    2634:	055000ef          	jal	ra,2e88 <__assert_func>
E:\GITKraken\Dual-core_Communication_Demo\Dual-core_Communication_Demo\MASTER\obj/../Libraries/seekfree_libraries/zf_spi.c:47

    if(SPI1_MOSI_PA7 == mosi_pin) gpio_init(A7, GPO, 1, SPEED_50MHZ|OUT_AF_PP);
    2638:	fe842703          	lw	a4,-24(s0)
    263c:	4785                	li	a5,1
    263e:	00f71a63          	bne	a4,a5,2652 <spi_gpio_init+0x9a>
E:\GITKraken\Dual-core_Communication_Demo\Dual-core_Communication_Demo\MASTER\obj/../Libraries/seekfree_libraries/zf_spi.c:47 (discriminator 1)
    2642:	31800693          	li	a3,792
    2646:	4605                	li	a2,1
    2648:	4585                	li	a1,1
    264a:	451d                	li	a0,7
    264c:	c03ff0ef          	jal	ra,224e <gpio_init>
    2650:	a899                	j	26a6 <spi_gpio_init+0xee>
E:\GITKraken\Dual-core_Communication_Demo\Dual-core_Communication_Demo\MASTER\obj/../Libraries/seekfree_libraries/zf_spi.c:48
    else if(SPI1_MOSI_PB5 == mosi_pin) gpio_init(B5, GPO, 1, SPEED_50MHZ|OUT_AF_PP);
    2652:	fe842703          	lw	a4,-24(s0)
    2656:	47c5                	li	a5,17
    2658:	00f71b63          	bne	a4,a5,266e <spi_gpio_init+0xb6>
E:\GITKraken\Dual-core_Communication_Demo\Dual-core_Communication_Demo\MASTER\obj/../Libraries/seekfree_libraries/zf_spi.c:48 (discriminator 1)
    265c:	31800693          	li	a3,792
    2660:	4605                	li	a2,1
    2662:	4585                	li	a1,1
    2664:	02500513          	li	a0,37
    2668:	be7ff0ef          	jal	ra,224e <gpio_init>
    266c:	a82d                	j	26a6 <spi_gpio_init+0xee>
E:\GITKraken\Dual-core_Communication_Demo\Dual-core_Communication_Demo\MASTER\obj/../Libraries/seekfree_libraries/zf_spi.c:49
    else if(SPI2_MOSI_PB15 == mosi_pin) gpio_init(B15, GPO, 1, SPEED_50MHZ|OUT_AF_PP);
    266e:	fe842703          	lw	a4,-24(s0)
    2672:	02100793          	li	a5,33
    2676:	00f71b63          	bne	a4,a5,268c <spi_gpio_init+0xd4>
E:\GITKraken\Dual-core_Communication_Demo\Dual-core_Communication_Demo\MASTER\obj/../Libraries/seekfree_libraries/zf_spi.c:49 (discriminator 1)
    267a:	31800693          	li	a3,792
    267e:	4605                	li	a2,1
    2680:	4585                	li	a1,1
    2682:	02f00513          	li	a0,47
    2686:	bc9ff0ef          	jal	ra,224e <gpio_init>
    268a:	a831                	j	26a6 <spi_gpio_init+0xee>
E:\GITKraken\Dual-core_Communication_Demo\Dual-core_Communication_Demo\MASTER\obj/../Libraries/seekfree_libraries/zf_spi.c:50
    else assert(0);         //无此参数进入断言
    268c:	6791                	lui	a5,0x4
    268e:	0b878693          	addi	a3,a5,184 # 40b8 <_exit+0x4>
    2692:	6791                	lui	a5,0x4
    2694:	6e878613          	addi	a2,a5,1768 # 46e8 <__func__.3348>
    2698:	03200593          	li	a1,50
    269c:	6791                	lui	a5,0x4
    269e:	0bc78513          	addi	a0,a5,188 # 40bc <_exit+0x8>
    26a2:	7e6000ef          	jal	ra,2e88 <__assert_func>
E:\GITKraken\Dual-core_Communication_Demo\Dual-core_Communication_Demo\MASTER\obj/../Libraries/seekfree_libraries/zf_spi.c:52

    if(SPI1_MISO_PA6 == miso_pin) gpio_init(A6, GPO, 1, SPEED_50MHZ|OUT_AF_PP);
    26a6:	fe442703          	lw	a4,-28(s0)
    26aa:	4789                	li	a5,2
    26ac:	00f71a63          	bne	a4,a5,26c0 <spi_gpio_init+0x108>
E:\GITKraken\Dual-core_Communication_Demo\Dual-core_Communication_Demo\MASTER\obj/../Libraries/seekfree_libraries/zf_spi.c:52 (discriminator 1)
    26b0:	31800693          	li	a3,792
    26b4:	4605                	li	a2,1
    26b6:	4585                	li	a1,1
    26b8:	4519                	li	a0,6
    26ba:	b95ff0ef          	jal	ra,224e <gpio_init>
    26be:	a0b5                	j	272a <spi_gpio_init+0x172>
E:\GITKraken\Dual-core_Communication_Demo\Dual-core_Communication_Demo\MASTER\obj/../Libraries/seekfree_libraries/zf_spi.c:53
    else if(SPI1_MISO_PB4 == miso_pin) gpio_init(B4, GPO, 1, SPEED_50MHZ|OUT_AF_PP);
    26c0:	fe442703          	lw	a4,-28(s0)
    26c4:	47c9                	li	a5,18
    26c6:	00f71b63          	bne	a4,a5,26dc <spi_gpio_init+0x124>
E:\GITKraken\Dual-core_Communication_Demo\Dual-core_Communication_Demo\MASTER\obj/../Libraries/seekfree_libraries/zf_spi.c:53 (discriminator 1)
    26ca:	31800693          	li	a3,792
    26ce:	4605                	li	a2,1
    26d0:	4585                	li	a1,1
    26d2:	02400513          	li	a0,36
    26d6:	b79ff0ef          	jal	ra,224e <gpio_init>
    26da:	a881                	j	272a <spi_gpio_init+0x172>
E:\GITKraken\Dual-core_Communication_Demo\Dual-core_Communication_Demo\MASTER\obj/../Libraries/seekfree_libraries/zf_spi.c:54
    else if(SPI2_MISO_PB14 == miso_pin) gpio_init(B14, GPO, 1, SPEED_50MHZ|OUT_AF_PP);
    26dc:	fe442703          	lw	a4,-28(s0)
    26e0:	02200793          	li	a5,34
    26e4:	00f71b63          	bne	a4,a5,26fa <spi_gpio_init+0x142>
E:\GITKraken\Dual-core_Communication_Demo\Dual-core_Communication_Demo\MASTER\obj/../Libraries/seekfree_libraries/zf_spi.c:54 (discriminator 1)
    26e8:	31800693          	li	a3,792
    26ec:	4605                	li	a2,1
    26ee:	4585                	li	a1,1
    26f0:	02e00513          	li	a0,46
    26f4:	b5bff0ef          	jal	ra,224e <gpio_init>
    26f8:	a80d                	j	272a <spi_gpio_init+0x172>
E:\GITKraken\Dual-core_Communication_Demo\Dual-core_Communication_Demo\MASTER\obj/../Libraries/seekfree_libraries/zf_spi.c:55
    else if(SPI_MISO_NULL == miso_pin)  miso_pin = SPI_MISO_NULL;
    26fa:	fe442703          	lw	a4,-28(s0)
    26fe:	02300793          	li	a5,35
    2702:	00f71763          	bne	a4,a5,2710 <spi_gpio_init+0x158>
E:\GITKraken\Dual-core_Communication_Demo\Dual-core_Communication_Demo\MASTER\obj/../Libraries/seekfree_libraries/zf_spi.c:55 (discriminator 1)
    2706:	02300793          	li	a5,35
    270a:	fef42223          	sw	a5,-28(s0)
    270e:	a831                	j	272a <spi_gpio_init+0x172>
E:\GITKraken\Dual-core_Communication_Demo\Dual-core_Communication_Demo\MASTER\obj/../Libraries/seekfree_libraries/zf_spi.c:56
    else  assert(0);         //无此参数进入断言
    2710:	6791                	lui	a5,0x4
    2712:	0b878693          	addi	a3,a5,184 # 40b8 <_exit+0x4>
    2716:	6791                	lui	a5,0x4
    2718:	6e878613          	addi	a2,a5,1768 # 46e8 <__func__.3348>
    271c:	03800593          	li	a1,56
    2720:	6791                	lui	a5,0x4
    2722:	0bc78513          	addi	a0,a5,188 # 40bc <_exit+0x8>
    2726:	762000ef          	jal	ra,2e88 <__assert_func>
E:\GITKraken\Dual-core_Communication_Demo\Dual-core_Communication_Demo\MASTER\obj/../Libraries/seekfree_libraries/zf_spi.c:59


    gpio_init(cs_pin, GPO, 1, SPEED_50MHZ|OUT_PP);
    272a:	31000693          	li	a3,784
    272e:	4605                	li	a2,1
    2730:	4585                	li	a1,1
    2732:	fe042503          	lw	a0,-32(s0)
    2736:	b19ff0ef          	jal	ra,224e <gpio_init>
E:\GITKraken\Dual-core_Communication_Demo\Dual-core_Communication_Demo\MASTER\obj/../Libraries/seekfree_libraries/zf_spi.c:61

}
    273a:	0001                	nop
    273c:	40f2                	lw	ra,28(sp)
    273e:	4462                	lw	s0,24(sp)
    2740:	6105                	addi	sp,sp,32
    2742:	8082                	ret

00002744 <spi_init>:
spi_init():
E:\GITKraken\Dual-core_Communication_Demo\Dual-core_Communication_Demo\MASTER\obj/../Libraries/seekfree_libraries/zf_spi.c:85
        SPI_PIN_enum mosi_pin,
        SPI_PIN_enum miso_pin,
        PIN_enum cs_pin,
        uint8 mode,
        SPI_SPEED_enum BaudRatePrescaler)
{
    2744:	715d                	addi	sp,sp,-80
    2746:	c686                	sw	ra,76(sp)
    2748:	c4a2                	sw	s0,72(sp)
    274a:	0880                	addi	s0,sp,80
    274c:	fca42623          	sw	a0,-52(s0)
    2750:	fcb42423          	sw	a1,-56(s0)
    2754:	fcc42223          	sw	a2,-60(s0)
    2758:	fcd42023          	sw	a3,-64(s0)
    275c:	fae42e23          	sw	a4,-68(s0)
    2760:	fb042a23          	sw	a6,-76(s0)
    2764:	faf40da3          	sb	a5,-69(s0)
E:\GITKraken\Dual-core_Communication_Demo\Dual-core_Communication_Demo\MASTER\obj/../Libraries/seekfree_libraries/zf_spi.c:89

    SPI_InitTypeDef  SPI_InitStructure;

    if(SPI_1 == spi_n)
    2768:	fcc42783          	lw	a5,-52(s0)
    276c:	eb81                	bnez	a5,277c <spi_init+0x38>
E:\GITKraken\Dual-core_Communication_Demo\Dual-core_Communication_Demo\MASTER\obj/../Libraries/seekfree_libraries/zf_spi.c:91
    {
        RCC_APB2PeriphClockCmd(RCC_APB2Periph_SPI1 | RCC_APB2Periph_AFIO, ENABLE);                //SPI1时钟使能
    276e:	4585                	li	a1,1
    2770:	6785                	lui	a5,0x1
    2772:	00178513          	addi	a0,a5,1 # 1001 <NVIC_Init+0xa5>
    2776:	ac5fe0ef          	jal	ra,123a <RCC_APB2PeriphClockCmd>
    277a:	a821                	j	2792 <spi_init+0x4e>
E:\GITKraken\Dual-core_Communication_Demo\Dual-core_Communication_Demo\MASTER\obj/../Libraries/seekfree_libraries/zf_spi.c:93
    }
    else if(SPI_2 == spi_n)
    277c:	fcc42703          	lw	a4,-52(s0)
    2780:	4785                	li	a5,1
    2782:	00f71863          	bne	a4,a5,2792 <spi_init+0x4e>
E:\GITKraken\Dual-core_Communication_Demo\Dual-core_Communication_Demo\MASTER\obj/../Libraries/seekfree_libraries/zf_spi.c:95
    {
        RCC_APB1PeriphClockCmd(RCC_APB1Periph_SPI2 | RCC_APB2Periph_AFIO, ENABLE);                //SPI2时钟使能
    2786:	4585                	li	a1,1
    2788:	6791                	lui	a5,0x4
    278a:	00178513          	addi	a0,a5,1 # 4001 <_lseek_r+0x1d>
    278e:	af3fe0ef          	jal	ra,1280 <RCC_APB1PeriphClockCmd>
E:\GITKraken\Dual-core_Communication_Demo\Dual-core_Communication_Demo\MASTER\obj/../Libraries/seekfree_libraries/zf_spi.c:98
    }

    spi_gpio_init(sck_pin, mosi_pin, miso_pin, cs_pin);
    2792:	fbc42683          	lw	a3,-68(s0)
    2796:	fc042603          	lw	a2,-64(s0)
    279a:	fc442583          	lw	a1,-60(s0)
    279e:	fc842503          	lw	a0,-56(s0)
    27a2:	3d19                	jal	25b8 <spi_gpio_init>
E:\GITKraken\Dual-core_Communication_Demo\Dual-core_Communication_Demo\MASTER\obj/../Libraries/seekfree_libraries/zf_spi.c:100

    SPI_InitStructure.SPI_Direction = SPI_Direction_2Lines_FullDuplex;      //SPI设置为双线双向全双工
    27a4:	fc041e23          	sh	zero,-36(s0)
E:\GITKraken\Dual-core_Communication_Demo\Dual-core_Communication_Demo\MASTER\obj/../Libraries/seekfree_libraries/zf_spi.c:101
    SPI_InitStructure.SPI_Mode = SPI_Mode_Master;                           //设置SPI工作模式:设置为主SPI
    27a8:	10400793          	li	a5,260
    27ac:	fcf41f23          	sh	a5,-34(s0)
E:\GITKraken\Dual-core_Communication_Demo\Dual-core_Communication_Demo\MASTER\obj/../Libraries/seekfree_libraries/zf_spi.c:102
    SPI_InitStructure.SPI_DataSize = SPI_DataSize_8b;                       //设置SPI的数据大小:SPI发送接收8位帧结构
    27b0:	fe041023          	sh	zero,-32(s0)
E:\GITKraken\Dual-core_Communication_Demo\Dual-core_Communication_Demo\MASTER\obj/../Libraries/seekfree_libraries/zf_spi.c:104

    switch(mode)
    27b4:	fbb44783          	lbu	a5,-69(s0)
    27b8:	4705                	li	a4,1
    27ba:	02e78363          	beq	a5,a4,27e0 <spi_init+0x9c>
    27be:	4705                	li	a4,1
    27c0:	00f74463          	blt	a4,a5,27c8 <spi_init+0x84>
    27c4:	cb89                	beqz	a5,27d6 <spi_init+0x92>
    27c6:	a081                	j	2806 <spi_init+0xc2>
    27c8:	4709                	li	a4,2
    27ca:	02e78163          	beq	a5,a4,27ec <spi_init+0xa8>
    27ce:	470d                	li	a4,3
    27d0:	02e78463          	beq	a5,a4,27f8 <spi_init+0xb4>
    27d4:	a80d                	j	2806 <spi_init+0xc2>
E:\GITKraken\Dual-core_Communication_Demo\Dual-core_Communication_Demo\MASTER\obj/../Libraries/seekfree_libraries/zf_spi.c:108
    {
        case 0:
        {
            SPI_InitStructure.SPI_CPOL = SPI_CPOL_Low;                      //串行同步时钟的空闲状态为低电平
    27d6:	fe041123          	sh	zero,-30(s0)
E:\GITKraken\Dual-core_Communication_Demo\Dual-core_Communication_Demo\MASTER\obj/../Libraries/seekfree_libraries/zf_spi.c:109
            SPI_InitStructure.SPI_CPHA = SPI_CPHA_1Edge;                    //串行同步时钟的第一个跳变沿（上升或下降）数据被采样
    27da:	fe041223          	sh	zero,-28(s0)
E:\GITKraken\Dual-core_Communication_Demo\Dual-core_Communication_Demo\MASTER\obj/../Libraries/seekfree_libraries/zf_spi.c:110
        }break;
    27de:	a025                	j	2806 <spi_init+0xc2>
E:\GITKraken\Dual-core_Communication_Demo\Dual-core_Communication_Demo\MASTER\obj/../Libraries/seekfree_libraries/zf_spi.c:113
        case 1:
        {
            SPI_InitStructure.SPI_CPOL = SPI_CPOL_Low;                      //串行同步时钟的空闲状态为低电平
    27e0:	fe041123          	sh	zero,-30(s0)
E:\GITKraken\Dual-core_Communication_Demo\Dual-core_Communication_Demo\MASTER\obj/../Libraries/seekfree_libraries/zf_spi.c:114
            SPI_InitStructure.SPI_CPHA = SPI_CPHA_2Edge;                    //串行同步时钟的第二个跳变沿（上升或下降）数据被采样
    27e4:	4785                	li	a5,1
    27e6:	fef41223          	sh	a5,-28(s0)
E:\GITKraken\Dual-core_Communication_Demo\Dual-core_Communication_Demo\MASTER\obj/../Libraries/seekfree_libraries/zf_spi.c:115
        }break;
    27ea:	a831                	j	2806 <spi_init+0xc2>
E:\GITKraken\Dual-core_Communication_Demo\Dual-core_Communication_Demo\MASTER\obj/../Libraries/seekfree_libraries/zf_spi.c:118
        case 2:
        {
            SPI_InitStructure.SPI_CPOL = SPI_CPOL_High;                     //串行同步时钟的空闲状态为高电平
    27ec:	4789                	li	a5,2
    27ee:	fef41123          	sh	a5,-30(s0)
E:\GITKraken\Dual-core_Communication_Demo\Dual-core_Communication_Demo\MASTER\obj/../Libraries/seekfree_libraries/zf_spi.c:119
            SPI_InitStructure.SPI_CPHA = SPI_CPHA_1Edge;                    //串行同步时钟的第一个跳变沿（上升或下降）数据被采样
    27f2:	fe041223          	sh	zero,-28(s0)
E:\GITKraken\Dual-core_Communication_Demo\Dual-core_Communication_Demo\MASTER\obj/../Libraries/seekfree_libraries/zf_spi.c:120
        }break;
    27f6:	a801                	j	2806 <spi_init+0xc2>
E:\GITKraken\Dual-core_Communication_Demo\Dual-core_Communication_Demo\MASTER\obj/../Libraries/seekfree_libraries/zf_spi.c:123
        case 3:
        {
            SPI_InitStructure.SPI_CPOL = SPI_CPOL_High;                     //串行同步时钟的空闲状态为高电平
    27f8:	4789                	li	a5,2
    27fa:	fef41123          	sh	a5,-30(s0)
E:\GITKraken\Dual-core_Communication_Demo\Dual-core_Communication_Demo\MASTER\obj/../Libraries/seekfree_libraries/zf_spi.c:124
            SPI_InitStructure.SPI_CPHA = SPI_CPHA_2Edge;                    //串行同步时钟的第二个跳变沿（上升或下降）数据被采样
    27fe:	4785                	li	a5,1
    2800:	fef41223          	sh	a5,-28(s0)
E:\GITKraken\Dual-core_Communication_Demo\Dual-core_Communication_Demo\MASTER\obj/../Libraries/seekfree_libraries/zf_spi.c:125
        }break;
    2804:	0001                	nop
E:\GITKraken\Dual-core_Communication_Demo\Dual-core_Communication_Demo\MASTER\obj/../Libraries/seekfree_libraries/zf_spi.c:128
    }

    SPI_InitStructure.SPI_NSS = SPI_NSS_Soft;                               //主机模式，使用软件控制NSS引脚
    2806:	20000793          	li	a5,512
    280a:	fef41323          	sh	a5,-26(s0)
E:\GITKraken\Dual-core_Communication_Demo\Dual-core_Communication_Demo\MASTER\obj/../Libraries/seekfree_libraries/zf_spi.c:129
    SPI_InitStructure.SPI_BaudRatePrescaler = BaudRatePrescaler << 3;       //定义波特率预分频的值
    280e:	fb442783          	lw	a5,-76(s0)
    2812:	07c2                	slli	a5,a5,0x10
    2814:	83c1                	srli	a5,a5,0x10
    2816:	078e                	slli	a5,a5,0x3
    2818:	07c2                	slli	a5,a5,0x10
    281a:	83c1                	srli	a5,a5,0x10
    281c:	fef41423          	sh	a5,-24(s0)
E:\GITKraken\Dual-core_Communication_Demo\Dual-core_Communication_Demo\MASTER\obj/../Libraries/seekfree_libraries/zf_spi.c:130
    SPI_InitStructure.SPI_FirstBit = SPI_FirstBit_MSB;                      //指定数据传输从MSB位还是LSB位开始:数据传输从MSB位开始
    2820:	fe041523          	sh	zero,-22(s0)
E:\GITKraken\Dual-core_Communication_Demo\Dual-core_Communication_Demo\MASTER\obj/../Libraries/seekfree_libraries/zf_spi.c:131
    SPI_InitStructure.SPI_CRCPolynomial = 7;                                //CRC值计算的多项式
    2824:	479d                	li	a5,7
    2826:	fef41623          	sh	a5,-20(s0)
E:\GITKraken\Dual-core_Communication_Demo\Dual-core_Communication_Demo\MASTER\obj/../Libraries/seekfree_libraries/zf_spi.c:132
    SPI_Init((SPI_TypeDef *)(SPIN[spi_n]), &SPI_InitStructure);             //根据SPI_InitStruct中指定的参数初始化外设SPIx寄存器
    282a:	fcc42703          	lw	a4,-52(s0)
    282e:	070a                	slli	a4,a4,0x2
    2830:	80c18793          	addi	a5,gp,-2036 # 2000007c <SPIN>
    2834:	97ba                	add	a5,a5,a4
    2836:	439c                	lw	a5,0(a5)
    2838:	873e                	mv	a4,a5
    283a:	fdc40793          	addi	a5,s0,-36
    283e:	85be                	mv	a1,a5
    2840:	853a                	mv	a0,a4
    2842:	a85fe0ef          	jal	ra,12c6 <SPI_Init>
E:\GITKraken\Dual-core_Communication_Demo\Dual-core_Communication_Demo\MASTER\obj/../Libraries/seekfree_libraries/zf_spi.c:134

    if(SPI1_SCK_PB3 == sck_pin) GPIO_PinRemapConfig(GPIO_Remap_SPI1, ENABLE);
    2846:	fc842703          	lw	a4,-56(s0)
    284a:	47c1                	li	a5,16
    284c:	00f71663          	bne	a4,a5,2858 <spi_init+0x114>
E:\GITKraken\Dual-core_Communication_Demo\Dual-core_Communication_Demo\MASTER\obj/../Libraries/seekfree_libraries/zf_spi.c:134 (discriminator 1)
    2850:	4585                	li	a1,1
    2852:	4505                	li	a0,1
    2854:	c9cfe0ef          	jal	ra,cf0 <GPIO_PinRemapConfig>
E:\GITKraken\Dual-core_Communication_Demo\Dual-core_Communication_Demo\MASTER\obj/../Libraries/seekfree_libraries/zf_spi.c:136

    SPI_Cmd(((SPI_TypeDef *)(SPIN[spi_n])), ENABLE);                         //使能SPI外设
    2858:	fcc42703          	lw	a4,-52(s0)
    285c:	070a                	slli	a4,a4,0x2
    285e:	80c18793          	addi	a5,gp,-2036 # 2000007c <SPIN>
    2862:	97ba                	add	a5,a5,a4
    2864:	439c                	lw	a5,0(a5)
    2866:	4585                	li	a1,1
    2868:	853e                	mv	a0,a5
    286a:	b55fe0ef          	jal	ra,13be <SPI_Cmd>
E:\GITKraken\Dual-core_Communication_Demo\Dual-core_Communication_Demo\MASTER\obj/../Libraries/seekfree_libraries/zf_spi.c:138

}
    286e:	0001                	nop
    2870:	40b6                	lw	ra,76(sp)
    2872:	4426                	lw	s0,72(sp)
    2874:	6161                	addi	sp,sp,80
    2876:	8082                	ret

00002878 <spi_mosi>:
spi_mosi():
E:\GITKraken\Dual-core_Communication_Demo\Dual-core_Communication_Demo\MASTER\obj/../Libraries/seekfree_libraries/zf_spi.c:151
//  @return     void
//  @since      v2.0
//  Sample usage:               spi_mosi(SPI_1, buf, buf, 1);    //发送modata的内容，并接收到midata里，长度为1字节
//-------------------------------------------------------------------------------------------------------------------
void spi_mosi(SPIN_enum spi_n, uint8 *modata, uint8 *midata, uint32 len)
{
    2878:	1101                	addi	sp,sp,-32
    287a:	ce22                	sw	s0,28(sp)
    287c:	1000                	addi	s0,sp,32
    287e:	fea42623          	sw	a0,-20(s0)
    2882:	feb42423          	sw	a1,-24(s0)
    2886:	fec42223          	sw	a2,-28(s0)
    288a:	fed42023          	sw	a3,-32(s0)
E:\GITKraken\Dual-core_Communication_Demo\Dual-core_Communication_Demo\MASTER\obj/../Libraries/seekfree_libraries/zf_spi.c:152
    while(len--)
    288e:	a859                	j	2924 <spi_mosi+0xac>
E:\GITKraken\Dual-core_Communication_Demo\Dual-core_Communication_Demo\MASTER\obj/../Libraries/seekfree_libraries/zf_spi.c:154
    {
        while((((SPI_TypeDef *)(SPIN[spi_n]))->STATR & SPI_I2S_FLAG_TXE) == RESET);
    2890:	0001                	nop
E:\GITKraken\Dual-core_Communication_Demo\Dual-core_Communication_Demo\MASTER\obj/../Libraries/seekfree_libraries/zf_spi.c:154 (discriminator 1)
    2892:	fec42703          	lw	a4,-20(s0)
    2896:	070a                	slli	a4,a4,0x2
    2898:	80c18793          	addi	a5,gp,-2036 # 2000007c <SPIN>
    289c:	97ba                	add	a5,a5,a4
    289e:	439c                	lw	a5,0(a5)
    28a0:	0087d783          	lhu	a5,8(a5)
    28a4:	07c2                	slli	a5,a5,0x10
    28a6:	83c1                	srli	a5,a5,0x10
    28a8:	8b89                	andi	a5,a5,2
    28aa:	d7e5                	beqz	a5,2892 <spi_mosi+0x1a>
E:\GITKraken\Dual-core_Communication_Demo\Dual-core_Communication_Demo\MASTER\obj/../Libraries/seekfree_libraries/zf_spi.c:155
        ((SPI_TypeDef *)(SPIN[spi_n]))->DATAR = *(modata++);
    28ac:	fe842783          	lw	a5,-24(s0)
    28b0:	00178713          	addi	a4,a5,1
    28b4:	fee42423          	sw	a4,-24(s0)
    28b8:	0007c683          	lbu	a3,0(a5)
    28bc:	fec42703          	lw	a4,-20(s0)
    28c0:	070a                	slli	a4,a4,0x2
    28c2:	80c18793          	addi	a5,gp,-2036 # 2000007c <SPIN>
    28c6:	97ba                	add	a5,a5,a4
    28c8:	439c                	lw	a5,0(a5)
    28ca:	873e                	mv	a4,a5
    28cc:	01069793          	slli	a5,a3,0x10
    28d0:	83c1                	srli	a5,a5,0x10
    28d2:	00f71623          	sh	a5,12(a4) # 1000c <_data_lma+0xb828>
E:\GITKraken\Dual-core_Communication_Demo\Dual-core_Communication_Demo\MASTER\obj/../Libraries/seekfree_libraries/zf_spi.c:156
        if(NULL != midata)
    28d6:	fe442783          	lw	a5,-28(s0)
    28da:	c7a9                	beqz	a5,2924 <spi_mosi+0xac>
E:\GITKraken\Dual-core_Communication_Demo\Dual-core_Communication_Demo\MASTER\obj/../Libraries/seekfree_libraries/zf_spi.c:158
        {
            while((((SPI_TypeDef *)(SPIN[spi_n]))->STATR & SPI_I2S_FLAG_RXNE) == RESET);
    28dc:	0001                	nop
E:\GITKraken\Dual-core_Communication_Demo\Dual-core_Communication_Demo\MASTER\obj/../Libraries/seekfree_libraries/zf_spi.c:158 (discriminator 1)
    28de:	fec42703          	lw	a4,-20(s0)
    28e2:	070a                	slli	a4,a4,0x2
    28e4:	80c18793          	addi	a5,gp,-2036 # 2000007c <SPIN>
    28e8:	97ba                	add	a5,a5,a4
    28ea:	439c                	lw	a5,0(a5)
    28ec:	0087d783          	lhu	a5,8(a5)
    28f0:	07c2                	slli	a5,a5,0x10
    28f2:	83c1                	srli	a5,a5,0x10
    28f4:	8b85                	andi	a5,a5,1
    28f6:	d7e5                	beqz	a5,28de <spi_mosi+0x66>
E:\GITKraken\Dual-core_Communication_Demo\Dual-core_Communication_Demo\MASTER\obj/../Libraries/seekfree_libraries/zf_spi.c:159
            *(midata++) = ((SPI_TypeDef *)(SPIN[spi_n]))->DATAR;
    28f8:	fec42703          	lw	a4,-20(s0)
    28fc:	070a                	slli	a4,a4,0x2
    28fe:	80c18793          	addi	a5,gp,-2036 # 2000007c <SPIN>
    2902:	97ba                	add	a5,a5,a4
    2904:	439c                	lw	a5,0(a5)
    2906:	00c7d783          	lhu	a5,12(a5)
    290a:	01079693          	slli	a3,a5,0x10
    290e:	82c1                	srli	a3,a3,0x10
    2910:	fe442783          	lw	a5,-28(s0)
    2914:	00178713          	addi	a4,a5,1
    2918:	fee42223          	sw	a4,-28(s0)
    291c:	0ff6f713          	andi	a4,a3,255
    2920:	00e78023          	sb	a4,0(a5)
E:\GITKraken\Dual-core_Communication_Demo\Dual-core_Communication_Demo\MASTER\obj/../Libraries/seekfree_libraries/zf_spi.c:152
    while(len--)
    2924:	fe042783          	lw	a5,-32(s0)
    2928:	fff78713          	addi	a4,a5,-1
    292c:	fee42023          	sw	a4,-32(s0)
    2930:	f3a5                	bnez	a5,2890 <spi_mosi+0x18>
E:\GITKraken\Dual-core_Communication_Demo\Dual-core_Communication_Demo\MASTER\obj/../Libraries/seekfree_libraries/zf_spi.c:162
        }
    }
}
    2932:	0001                	nop
    2934:	4472                	lw	s0,28(sp)
    2936:	6105                	addi	sp,sp,32
    2938:	8082                	ret

0000293a <systick_delay>:
systick_delay():
E:\GITKraken\Dual-core_Communication_Demo\Dual-core_Communication_Demo\MASTER\obj/../Libraries/seekfree_libraries/zf_systick.c:29
//  @param      time                us
//  @return     void
//  Sample usage:                   内部使用，用户无需关心
//-------------------------------------------------------------------------------------------------------------------
void systick_delay(uint64 time)
{
    293a:	1101                	addi	sp,sp,-32
    293c:	ce22                	sw	s0,28(sp)
    293e:	1000                	addi	s0,sp,32
    2940:	fea42423          	sw	a0,-24(s0)
    2944:	feb42623          	sw	a1,-20(s0)
E:\GITKraken\Dual-core_Communication_Demo\Dual-core_Communication_Demo\MASTER\obj/../Libraries/seekfree_libraries/zf_systick.c:30
    SysTick->CTLR = 0;
    2948:	e000f737          	lui	a4,0xe000f
    294c:	00072023          	sw	zero,0(a4) # e000f000 <_eusrstack+0xc000a000>
E:\GITKraken\Dual-core_Communication_Demo\Dual-core_Communication_Demo\MASTER\obj/../Libraries/seekfree_libraries/zf_systick.c:31
    SysTick->CNTL0 = 0;
    2950:	e000f737          	lui	a4,0xe000f
    2954:	00070223          	sb	zero,4(a4) # e000f004 <_eusrstack+0xc000a004>
E:\GITKraken\Dual-core_Communication_Demo\Dual-core_Communication_Demo\MASTER\obj/../Libraries/seekfree_libraries/zf_systick.c:32
    SysTick->CNTL1 = 0;
    2958:	e000f737          	lui	a4,0xe000f
    295c:	000702a3          	sb	zero,5(a4) # e000f005 <_eusrstack+0xc000a005>
E:\GITKraken\Dual-core_Communication_Demo\Dual-core_Communication_Demo\MASTER\obj/../Libraries/seekfree_libraries/zf_systick.c:33
    SysTick->CNTL2 = 0;
    2960:	e000f737          	lui	a4,0xe000f
    2964:	00070323          	sb	zero,6(a4) # e000f006 <_eusrstack+0xc000a006>
E:\GITKraken\Dual-core_Communication_Demo\Dual-core_Communication_Demo\MASTER\obj/../Libraries/seekfree_libraries/zf_systick.c:34
    SysTick->CNTL3 = 0;
    2968:	e000f737          	lui	a4,0xe000f
    296c:	000703a3          	sb	zero,7(a4) # e000f007 <_eusrstack+0xc000a007>
E:\GITKraken\Dual-core_Communication_Demo\Dual-core_Communication_Demo\MASTER\obj/../Libraries/seekfree_libraries/zf_systick.c:35
    SysTick->CNTH0 = 0;
    2970:	e000f737          	lui	a4,0xe000f
    2974:	00070423          	sb	zero,8(a4) # e000f008 <_eusrstack+0xc000a008>
E:\GITKraken\Dual-core_Communication_Demo\Dual-core_Communication_Demo\MASTER\obj/../Libraries/seekfree_libraries/zf_systick.c:36
    SysTick->CNTH1 = 0;
    2978:	e000f737          	lui	a4,0xe000f
    297c:	000704a3          	sb	zero,9(a4) # e000f009 <_eusrstack+0xc000a009>
E:\GITKraken\Dual-core_Communication_Demo\Dual-core_Communication_Demo\MASTER\obj/../Libraries/seekfree_libraries/zf_systick.c:37
    SysTick->CNTH2 = 0;
    2980:	e000f737          	lui	a4,0xe000f
    2984:	00070523          	sb	zero,10(a4) # e000f00a <_eusrstack+0xc000a00a>
E:\GITKraken\Dual-core_Communication_Demo\Dual-core_Communication_Demo\MASTER\obj/../Libraries/seekfree_libraries/zf_systick.c:38
    SysTick->CNTH3 = 0;
    2988:	e000f737          	lui	a4,0xe000f
    298c:	000705a3          	sb	zero,11(a4) # e000f00b <_eusrstack+0xc000a00b>
E:\GITKraken\Dual-core_Communication_Demo\Dual-core_Communication_Demo\MASTER\obj/../Libraries/seekfree_libraries/zf_systick.c:39
    SysTick->CTLR = 1;          //启动系统计数器 systick（HCLK/8 时基） us
    2990:	e000f737          	lui	a4,0xe000f
    2994:	4685                	li	a3,1
    2996:	c314                	sw	a3,0(a4)
E:\GITKraken\Dual-core_Communication_Demo\Dual-core_Communication_Demo\MASTER\obj/../Libraries/seekfree_libraries/zf_systick.c:41

    while((*(volatile uint32*)0xE000F004) <= time);
    2998:	0001                	nop
E:\GITKraken\Dual-core_Communication_Demo\Dual-core_Communication_Demo\MASTER\obj/../Libraries/seekfree_libraries/zf_systick.c:41 (discriminator 1)
    299a:	e000f737          	lui	a4,0xe000f
    299e:	0711                	addi	a4,a4,4
    29a0:	4318                	lw	a4,0(a4)
    29a2:	87ba                	mv	a5,a4
    29a4:	4801                	li	a6,0
    29a6:	fec42703          	lw	a4,-20(s0)
    29aa:	86c2                	mv	a3,a6
    29ac:	00d76d63          	bltu	a4,a3,29c6 <systick_delay+0x8c>
    29b0:	fec42703          	lw	a4,-20(s0)
    29b4:	86c2                	mv	a3,a6
    29b6:	fed712e3          	bne	a4,a3,299a <systick_delay+0x60>
    29ba:	fe842703          	lw	a4,-24(s0)
    29be:	86be                	mv	a3,a5
    29c0:	00d76363          	bltu	a4,a3,29c6 <systick_delay+0x8c>
    29c4:	bfd9                	j	299a <systick_delay+0x60>
E:\GITKraken\Dual-core_Communication_Demo\Dual-core_Communication_Demo\MASTER\obj/../Libraries/seekfree_libraries/zf_systick.c:42
}
    29c6:	0001                	nop
    29c8:	4472                	lw	s0,28(sp)
    29ca:	6105                	addi	sp,sp,32
    29cc:	8082                	ret

000029ce <uart_gpio_init>:
uart_gpio_init():
E:\GITKraken\Dual-core_Communication_Demo\Dual-core_Communication_Demo\MASTER\obj/../Libraries/seekfree_libraries/zf_uart.c:38
//  @param      rx_pin      串口接收引脚号
//  @return     void
//  Sample usage:           内部使用，用户无需关心
//-------------------------------------------------------------------------------------------------------------------
void uart_gpio_init(UARTPIN_enum tx_pin, UARTPIN_enum rx_pin)
{
    29ce:	1101                	addi	sp,sp,-32
    29d0:	ce06                	sw	ra,28(sp)
    29d2:	cc22                	sw	s0,24(sp)
    29d4:	1000                	addi	s0,sp,32
    29d6:	fea42623          	sw	a0,-20(s0)
    29da:	feb42423          	sw	a1,-24(s0)
E:\GITKraken\Dual-core_Communication_Demo\Dual-core_Communication_Demo\MASTER\obj/../Libraries/seekfree_libraries/zf_uart.c:39
    if(tx_pin == UART1_TX_A9 && rx_pin == UART1_RX_A10)
    29de:	fec42783          	lw	a5,-20(s0)
    29e2:	e785                	bnez	a5,2a0a <uart_gpio_init+0x3c>
E:\GITKraken\Dual-core_Communication_Demo\Dual-core_Communication_Demo\MASTER\obj/../Libraries/seekfree_libraries/zf_uart.c:39 (discriminator 1)
    29e4:	fe842703          	lw	a4,-24(s0)
    29e8:	4785                	li	a5,1
    29ea:	02f71063          	bne	a4,a5,2a0a <uart_gpio_init+0x3c>
E:\GITKraken\Dual-core_Communication_Demo\Dual-core_Communication_Demo\MASTER\obj/../Libraries/seekfree_libraries/zf_uart.c:41
    {
        gpio_init(A9, GPO, 0, SPEED_50MHZ|OUT_AF_PP);
    29ee:	31800693          	li	a3,792
    29f2:	4601                	li	a2,0
    29f4:	4585                	li	a1,1
    29f6:	4525                	li	a0,9
    29f8:	857ff0ef          	jal	ra,224e <gpio_init>
E:\GITKraken\Dual-core_Communication_Demo\Dual-core_Communication_Demo\MASTER\obj/../Libraries/seekfree_libraries/zf_uart.c:42
        gpio_init(A10, GPI, 0, IN_FLOAT);
    29fc:	4691                	li	a3,4
    29fe:	4601                	li	a2,0
    2a00:	4581                	li	a1,0
    2a02:	4529                	li	a0,10
    2a04:	84bff0ef          	jal	ra,224e <gpio_init>
E:\GITKraken\Dual-core_Communication_Demo\Dual-core_Communication_Demo\MASTER\obj/../Libraries/seekfree_libraries/zf_uart.c:67
    else if(tx_pin == UART3_TX_C10)
    {
        gpio_init(C10, GPO, 0, SPEED_50MHZ|OUT_AF_PP);
        gpio_init(C11, GPI, 0, IN_FLOAT);
    }
}
    2a08:	a065                	j	2ab0 <uart_gpio_init+0xe2>
E:\GITKraken\Dual-core_Communication_Demo\Dual-core_Communication_Demo\MASTER\obj/../Libraries/seekfree_libraries/zf_uart.c:44
    else if(tx_pin == UART1_TX_B6)
    2a0a:	fec42703          	lw	a4,-20(s0)
    2a0e:	4789                	li	a5,2
    2a10:	02f71263          	bne	a4,a5,2a34 <uart_gpio_init+0x66>
E:\GITKraken\Dual-core_Communication_Demo\Dual-core_Communication_Demo\MASTER\obj/../Libraries/seekfree_libraries/zf_uart.c:46
        gpio_init(B6, GPO, 0, SPEED_50MHZ|OUT_AF_PP);
    2a14:	31800693          	li	a3,792
    2a18:	4601                	li	a2,0
    2a1a:	4585                	li	a1,1
    2a1c:	02600513          	li	a0,38
    2a20:	82fff0ef          	jal	ra,224e <gpio_init>
E:\GITKraken\Dual-core_Communication_Demo\Dual-core_Communication_Demo\MASTER\obj/../Libraries/seekfree_libraries/zf_uart.c:47
        gpio_init(B7, GPI, 0, IN_FLOAT);
    2a24:	4691                	li	a3,4
    2a26:	4601                	li	a2,0
    2a28:	4581                	li	a1,0
    2a2a:	02700513          	li	a0,39
    2a2e:	821ff0ef          	jal	ra,224e <gpio_init>
E:\GITKraken\Dual-core_Communication_Demo\Dual-core_Communication_Demo\MASTER\obj/../Libraries/seekfree_libraries/zf_uart.c:67
}
    2a32:	a8bd                	j	2ab0 <uart_gpio_init+0xe2>
E:\GITKraken\Dual-core_Communication_Demo\Dual-core_Communication_Demo\MASTER\obj/../Libraries/seekfree_libraries/zf_uart.c:50
    else if(tx_pin == UART2_TX_A2)
    2a34:	fec42703          	lw	a4,-20(s0)
    2a38:	47c1                	li	a5,16
    2a3a:	02f71063          	bne	a4,a5,2a5a <uart_gpio_init+0x8c>
E:\GITKraken\Dual-core_Communication_Demo\Dual-core_Communication_Demo\MASTER\obj/../Libraries/seekfree_libraries/zf_uart.c:52
        gpio_init(A2, GPO, 0, SPEED_50MHZ|OUT_AF_PP);
    2a3e:	31800693          	li	a3,792
    2a42:	4601                	li	a2,0
    2a44:	4585                	li	a1,1
    2a46:	4509                	li	a0,2
    2a48:	807ff0ef          	jal	ra,224e <gpio_init>
E:\GITKraken\Dual-core_Communication_Demo\Dual-core_Communication_Demo\MASTER\obj/../Libraries/seekfree_libraries/zf_uart.c:53
        gpio_init(A3, GPI, 0, IN_FLOAT);
    2a4c:	4691                	li	a3,4
    2a4e:	4601                	li	a2,0
    2a50:	4581                	li	a1,0
    2a52:	450d                	li	a0,3
    2a54:	ffaff0ef          	jal	ra,224e <gpio_init>
E:\GITKraken\Dual-core_Communication_Demo\Dual-core_Communication_Demo\MASTER\obj/../Libraries/seekfree_libraries/zf_uart.c:67
}
    2a58:	a8a1                	j	2ab0 <uart_gpio_init+0xe2>
E:\GITKraken\Dual-core_Communication_Demo\Dual-core_Communication_Demo\MASTER\obj/../Libraries/seekfree_libraries/zf_uart.c:56
    else if(tx_pin == UART3_TX_B10)
    2a5a:	fec42703          	lw	a4,-20(s0)
    2a5e:	02000793          	li	a5,32
    2a62:	02f71263          	bne	a4,a5,2a86 <uart_gpio_init+0xb8>
E:\GITKraken\Dual-core_Communication_Demo\Dual-core_Communication_Demo\MASTER\obj/../Libraries/seekfree_libraries/zf_uart.c:58
        gpio_init(B10, GPO, 0, SPEED_50MHZ|OUT_AF_PP);
    2a66:	31800693          	li	a3,792
    2a6a:	4601                	li	a2,0
    2a6c:	4585                	li	a1,1
    2a6e:	02a00513          	li	a0,42
    2a72:	fdcff0ef          	jal	ra,224e <gpio_init>
E:\GITKraken\Dual-core_Communication_Demo\Dual-core_Communication_Demo\MASTER\obj/../Libraries/seekfree_libraries/zf_uart.c:59
        gpio_init(B11, GPI, 0, IN_FLOAT);
    2a76:	4691                	li	a3,4
    2a78:	4601                	li	a2,0
    2a7a:	4581                	li	a1,0
    2a7c:	02b00513          	li	a0,43
    2a80:	fceff0ef          	jal	ra,224e <gpio_init>
E:\GITKraken\Dual-core_Communication_Demo\Dual-core_Communication_Demo\MASTER\obj/../Libraries/seekfree_libraries/zf_uart.c:67
}
    2a84:	a035                	j	2ab0 <uart_gpio_init+0xe2>
E:\GITKraken\Dual-core_Communication_Demo\Dual-core_Communication_Demo\MASTER\obj/../Libraries/seekfree_libraries/zf_uart.c:62
    else if(tx_pin == UART3_TX_C10)
    2a86:	fec42703          	lw	a4,-20(s0)
    2a8a:	02200793          	li	a5,34
    2a8e:	02f71163          	bne	a4,a5,2ab0 <uart_gpio_init+0xe2>
E:\GITKraken\Dual-core_Communication_Demo\Dual-core_Communication_Demo\MASTER\obj/../Libraries/seekfree_libraries/zf_uart.c:64
        gpio_init(C10, GPO, 0, SPEED_50MHZ|OUT_AF_PP);
    2a92:	31800693          	li	a3,792
    2a96:	4601                	li	a2,0
    2a98:	4585                	li	a1,1
    2a9a:	04a00513          	li	a0,74
    2a9e:	fb0ff0ef          	jal	ra,224e <gpio_init>
E:\GITKraken\Dual-core_Communication_Demo\Dual-core_Communication_Demo\MASTER\obj/../Libraries/seekfree_libraries/zf_uart.c:65
        gpio_init(C11, GPI, 0, IN_FLOAT);
    2aa2:	4691                	li	a3,4
    2aa4:	4601                	li	a2,0
    2aa6:	4581                	li	a1,0
    2aa8:	04b00513          	li	a0,75
    2aac:	fa2ff0ef          	jal	ra,224e <gpio_init>
E:\GITKraken\Dual-core_Communication_Demo\Dual-core_Communication_Demo\MASTER\obj/../Libraries/seekfree_libraries/zf_uart.c:67
}
    2ab0:	0001                	nop
    2ab2:	40f2                	lw	ra,28(sp)
    2ab4:	4462                	lw	s0,24(sp)
    2ab6:	6105                	addi	sp,sp,32
    2ab8:	8082                	ret

00002aba <uart_init>:
uart_init():
E:\GITKraken\Dual-core_Communication_Demo\Dual-core_Communication_Demo\MASTER\obj/../Libraries/seekfree_libraries/zf_uart.c:79
//  @param      rx_pin      串口接收引脚号
//  @return     void
//  Sample usage:           uart_init(UART_1, 115200, UART1_TX_A9, UART1_RX_A10); //串口1初始化引脚号,TX为A9,RX为A10
//-------------------------------------------------------------------------------------------------------------------
void uart_init(UARTN_enum uartn, uint32 baud, UARTPIN_enum tx_pin, UARTPIN_enum rx_pin)
{
    2aba:	7179                	addi	sp,sp,-48
    2abc:	d606                	sw	ra,44(sp)
    2abe:	d422                	sw	s0,40(sp)
    2ac0:	1800                	addi	s0,sp,48
    2ac2:	fca42e23          	sw	a0,-36(s0)
    2ac6:	fcb42c23          	sw	a1,-40(s0)
    2aca:	fcc42a23          	sw	a2,-44(s0)
    2ace:	fcd42823          	sw	a3,-48(s0)
E:\GITKraken\Dual-core_Communication_Demo\Dual-core_Communication_Demo\MASTER\obj/../Libraries/seekfree_libraries/zf_uart.c:83
    USART_InitTypeDef USART_InitStructure;


    RCC_APB2PeriphClockCmd(RCC_APB2Periph_AFIO, ENABLE);
    2ad2:	4585                	li	a1,1
    2ad4:	4505                	li	a0,1
    2ad6:	f64fe0ef          	jal	ra,123a <RCC_APB2PeriphClockCmd>
E:\GITKraken\Dual-core_Communication_Demo\Dual-core_Communication_Demo\MASTER\obj/../Libraries/seekfree_libraries/zf_uart.c:86

    //引脚初始化
    uart_gpio_init(tx_pin, rx_pin);
    2ada:	fd042583          	lw	a1,-48(s0)
    2ade:	fd442503          	lw	a0,-44(s0)
    2ae2:	35f5                	jal	29ce <uart_gpio_init>
E:\GITKraken\Dual-core_Communication_Demo\Dual-core_Communication_Demo\MASTER\obj/../Libraries/seekfree_libraries/zf_uart.c:88

    if(UART1_TX_B6 == tx_pin && UART1_RX_B7 == rx_pin)                         //引脚重映射
    2ae4:	fd442703          	lw	a4,-44(s0)
    2ae8:	4789                	li	a5,2
    2aea:	00f71b63          	bne	a4,a5,2b00 <uart_init+0x46>
E:\GITKraken\Dual-core_Communication_Demo\Dual-core_Communication_Demo\MASTER\obj/../Libraries/seekfree_libraries/zf_uart.c:88 (discriminator 1)
    2aee:	fd042703          	lw	a4,-48(s0)
    2af2:	478d                	li	a5,3
    2af4:	00f71663          	bne	a4,a5,2b00 <uart_init+0x46>
E:\GITKraken\Dual-core_Communication_Demo\Dual-core_Communication_Demo\MASTER\obj/../Libraries/seekfree_libraries/zf_uart.c:89
        GPIO_PinRemapConfig(GPIO_Remap_USART1, ENABLE);
    2af8:	4585                	li	a1,1
    2afa:	4511                	li	a0,4
    2afc:	9f4fe0ef          	jal	ra,cf0 <GPIO_PinRemapConfig>
E:\GITKraken\Dual-core_Communication_Demo\Dual-core_Communication_Demo\MASTER\obj/../Libraries/seekfree_libraries/zf_uart.c:90
    if(UART3_TX_C10 == tx_pin && UART3_RX_C11 == rx_pin)
    2b00:	fd442703          	lw	a4,-44(s0)
    2b04:	02200793          	li	a5,34
    2b08:	00f71f63          	bne	a4,a5,2b26 <uart_init+0x6c>
E:\GITKraken\Dual-core_Communication_Demo\Dual-core_Communication_Demo\MASTER\obj/../Libraries/seekfree_libraries/zf_uart.c:90 (discriminator 1)
    2b0c:	fd042703          	lw	a4,-48(s0)
    2b10:	02300793          	li	a5,35
    2b14:	00f71963          	bne	a4,a5,2b26 <uart_init+0x6c>
E:\GITKraken\Dual-core_Communication_Demo\Dual-core_Communication_Demo\MASTER\obj/../Libraries/seekfree_libraries/zf_uart.c:91
        GPIO_PinRemapConfig(GPIO_PartialRemap_USART3, ENABLE);
    2b18:	4585                	li	a1,1
    2b1a:	001407b7          	lui	a5,0x140
    2b1e:	01078513          	addi	a0,a5,16 # 140010 <_data_lma+0x13b82c>
    2b22:	9cefe0ef          	jal	ra,cf0 <GPIO_PinRemapConfig>
E:\GITKraken\Dual-core_Communication_Demo\Dual-core_Communication_Demo\MASTER\obj/../Libraries/seekfree_libraries/zf_uart.c:94

    //串口总线使能
    if(UART_1 == uartn) RCC_APB2PeriphClockCmd(RCC_APB2Periph_USART1, ENABLE);
    2b26:	fdc42783          	lw	a5,-36(s0)
    2b2a:	e791                	bnez	a5,2b36 <uart_init+0x7c>
E:\GITKraken\Dual-core_Communication_Demo\Dual-core_Communication_Demo\MASTER\obj/../Libraries/seekfree_libraries/zf_uart.c:94 (discriminator 1)
    2b2c:	4585                	li	a1,1
    2b2e:	6511                	lui	a0,0x4
    2b30:	f0afe0ef          	jal	ra,123a <RCC_APB2PeriphClockCmd>
    2b34:	a035                	j	2b60 <uart_init+0xa6>
E:\GITKraken\Dual-core_Communication_Demo\Dual-core_Communication_Demo\MASTER\obj/../Libraries/seekfree_libraries/zf_uart.c:95
    else if(UART_2 == uartn) RCC_APB1PeriphClockCmd(RCC_APB1Periph_USART2, ENABLE);
    2b36:	fdc42703          	lw	a4,-36(s0)
    2b3a:	4785                	li	a5,1
    2b3c:	00f71863          	bne	a4,a5,2b4c <uart_init+0x92>
E:\GITKraken\Dual-core_Communication_Demo\Dual-core_Communication_Demo\MASTER\obj/../Libraries/seekfree_libraries/zf_uart.c:95 (discriminator 1)
    2b40:	4585                	li	a1,1
    2b42:	00020537          	lui	a0,0x20
    2b46:	f3afe0ef          	jal	ra,1280 <RCC_APB1PeriphClockCmd>
    2b4a:	a819                	j	2b60 <uart_init+0xa6>
E:\GITKraken\Dual-core_Communication_Demo\Dual-core_Communication_Demo\MASTER\obj/../Libraries/seekfree_libraries/zf_uart.c:96
    else if(UART_3 == uartn) RCC_APB1PeriphClockCmd(RCC_APB1Periph_USART3, ENABLE);
    2b4c:	fdc42703          	lw	a4,-36(s0)
    2b50:	4789                	li	a5,2
    2b52:	00f71763          	bne	a4,a5,2b60 <uart_init+0xa6>
E:\GITKraken\Dual-core_Communication_Demo\Dual-core_Communication_Demo\MASTER\obj/../Libraries/seekfree_libraries/zf_uart.c:96 (discriminator 1)
    2b56:	4585                	li	a1,1
    2b58:	00040537          	lui	a0,0x40
    2b5c:	f24fe0ef          	jal	ra,1280 <RCC_APB1PeriphClockCmd>
E:\GITKraken\Dual-core_Communication_Demo\Dual-core_Communication_Demo\MASTER\obj/../Libraries/seekfree_libraries/zf_uart.c:99

    //串口参数配置
    USART_InitStructure.USART_BaudRate = baud;
    2b60:	fd842783          	lw	a5,-40(s0)
    2b64:	fef42023          	sw	a5,-32(s0)
E:\GITKraken\Dual-core_Communication_Demo\Dual-core_Communication_Demo\MASTER\obj/../Libraries/seekfree_libraries/zf_uart.c:100
    USART_InitStructure.USART_WordLength = USART_WordLength_8b;
    2b68:	fe041223          	sh	zero,-28(s0)
E:\GITKraken\Dual-core_Communication_Demo\Dual-core_Communication_Demo\MASTER\obj/../Libraries/seekfree_libraries/zf_uart.c:101
    USART_InitStructure.USART_StopBits = USART_StopBits_1;
    2b6c:	fe041323          	sh	zero,-26(s0)
E:\GITKraken\Dual-core_Communication_Demo\Dual-core_Communication_Demo\MASTER\obj/../Libraries/seekfree_libraries/zf_uart.c:102
    USART_InitStructure.USART_Parity = USART_Parity_No;
    2b70:	fe041423          	sh	zero,-24(s0)
E:\GITKraken\Dual-core_Communication_Demo\Dual-core_Communication_Demo\MASTER\obj/../Libraries/seekfree_libraries/zf_uart.c:103
    USART_InitStructure.USART_HardwareFlowControl = USART_HardwareFlowControl_None;
    2b74:	fe041623          	sh	zero,-20(s0)
E:\GITKraken\Dual-core_Communication_Demo\Dual-core_Communication_Demo\MASTER\obj/../Libraries/seekfree_libraries/zf_uart.c:104
    USART_InitStructure.USART_Mode = USART_Mode_Tx | USART_Mode_Rx;
    2b78:	47b1                	li	a5,12
    2b7a:	fef41523          	sh	a5,-22(s0)
E:\GITKraken\Dual-core_Communication_Demo\Dual-core_Communication_Demo\MASTER\obj/../Libraries/seekfree_libraries/zf_uart.c:107

    //使能串口
    USART_Init((USART_TypeDef*)UARTN[uartn], &USART_InitStructure);
    2b7e:	6791                	lui	a5,0x4
    2b80:	fdc42703          	lw	a4,-36(s0)
    2b84:	070a                	slli	a4,a4,0x2
    2b86:	6f878793          	addi	a5,a5,1784 # 46f8 <UARTN>
    2b8a:	97ba                	add	a5,a5,a4
    2b8c:	439c                	lw	a5,0(a5)
    2b8e:	873e                	mv	a4,a5
    2b90:	fe040793          	addi	a5,s0,-32
    2b94:	85be                	mv	a1,a5
    2b96:	853a                	mv	a0,a4
    2b98:	91ffe0ef          	jal	ra,14b6 <USART_Init>
E:\GITKraken\Dual-core_Communication_Demo\Dual-core_Communication_Demo\MASTER\obj/../Libraries/seekfree_libraries/zf_uart.c:108
    USART_Cmd((USART_TypeDef*)UARTN[uartn], ENABLE);
    2b9c:	6791                	lui	a5,0x4
    2b9e:	fdc42703          	lw	a4,-36(s0)
    2ba2:	070a                	slli	a4,a4,0x2
    2ba4:	6f878793          	addi	a5,a5,1784 # 46f8 <UARTN>
    2ba8:	97ba                	add	a5,a5,a4
    2baa:	439c                	lw	a5,0(a5)
    2bac:	4585                	li	a1,1
    2bae:	853e                	mv	a0,a5
    2bb0:	b39fe0ef          	jal	ra,16e8 <USART_Cmd>
E:\GITKraken\Dual-core_Communication_Demo\Dual-core_Communication_Demo\MASTER\obj/../Libraries/seekfree_libraries/zf_uart.c:111


}
    2bb4:	0001                	nop
    2bb6:	50b2                	lw	ra,44(sp)
    2bb8:	5422                	lw	s0,40(sp)
    2bba:	6145                	addi	sp,sp,48
    2bbc:	8082                	ret

00002bbe <uart_rx_irq>:
uart_rx_irq():
E:\GITKraken\Dual-core_Communication_Demo\Dual-core_Communication_Demo\MASTER\obj/../Libraries/seekfree_libraries/zf_uart.c:165
//  @param      status      使能或者失能
//  @return     void
//  Sample usage:           uart_rx_irq(UART_1, ENABLE);        //打开串口1接收中断
//-------------------------------------------------------------------------------------------------------------------
void uart_rx_irq(UARTN_enum uartn,uint8 status)
{
    2bbe:	1101                	addi	sp,sp,-32
    2bc0:	ce06                	sw	ra,28(sp)
    2bc2:	cc22                	sw	s0,24(sp)
    2bc4:	1000                	addi	s0,sp,32
    2bc6:	fea42623          	sw	a0,-20(s0)
    2bca:	87ae                	mv	a5,a1
    2bcc:	fef405a3          	sb	a5,-21(s0)
E:\GITKraken\Dual-core_Communication_Demo\Dual-core_Communication_Demo\MASTER\obj/../Libraries/seekfree_libraries/zf_uart.c:166
    USART_ITConfig(((USART_TypeDef*)UARTN[uartn]), USART_IT_RXNE, ENABLE);
    2bd0:	6791                	lui	a5,0x4
    2bd2:	fec42703          	lw	a4,-20(s0)
    2bd6:	070a                	slli	a4,a4,0x2
    2bd8:	6f878793          	addi	a5,a5,1784 # 46f8 <UARTN>
    2bdc:	97ba                	add	a5,a5,a4
    2bde:	439c                	lw	a5,0(a5)
    2be0:	4605                	li	a2,1
    2be2:	52500593          	li	a1,1317
    2be6:	853e                	mv	a0,a5
    2be8:	b61fe0ef          	jal	ra,1748 <USART_ITConfig>
E:\GITKraken\Dual-core_Communication_Demo\Dual-core_Communication_Demo\MASTER\obj/../Libraries/seekfree_libraries/zf_uart.c:167
    nvic_init(USART1_IRQn + uartn, 0, 0, status);
    2bec:	fec42783          	lw	a5,-20(s0)
    2bf0:	03578793          	addi	a5,a5,53
    2bf4:	feb44703          	lbu	a4,-21(s0)
    2bf8:	86ba                	mv	a3,a4
    2bfa:	4601                	li	a2,0
    2bfc:	4581                	li	a1,0
    2bfe:	853e                	mv	a0,a5
    2c00:	873ff0ef          	jal	ra,2472 <nvic_init>
E:\GITKraken\Dual-core_Communication_Demo\Dual-core_Communication_Demo\MASTER\obj/../Libraries/seekfree_libraries/zf_uart.c:168
}
    2c04:	0001                	nop
    2c06:	40f2                	lw	ra,28(sp)
    2c08:	4462                	lw	s0,24(sp)
    2c0a:	6105                	addi	sp,sp,32
    2c0c:	8082                	ret

00002c0e <board_init>:
board_init():
E:\GITKraken\Dual-core_Communication_Demo\Dual-core_Communication_Demo\MASTER\obj/../Libraries/board/board.c:9




void board_init(void)
{
    2c0e:	1141                	addi	sp,sp,-16
    2c10:	c606                	sw	ra,12(sp)
    2c12:	c422                	sw	s0,8(sp)
    2c14:	0800                	addi	s0,sp,16
E:\GITKraken\Dual-core_Communication_Demo\Dual-core_Communication_Demo\MASTER\obj/../Libraries/board/board.c:11
    //获取系统主频
    sys_clk = 8000000 * (((RCC->CFGR0 >> 18)&0x0F) + 2);
    2c16:	400217b7          	lui	a5,0x40021
    2c1a:	43dc                	lw	a5,4(a5)
    2c1c:	83c9                	srli	a5,a5,0x12
    2c1e:	00f7f713          	andi	a4,a5,15
    2c22:	007a17b7          	lui	a5,0x7a1
    2c26:	20078793          	addi	a5,a5,512 # 7a1200 <_data_lma+0x79ca1c>
    2c2a:	02f70733          	mul	a4,a4,a5
    2c2e:	00f427b7          	lui	a5,0xf42
    2c32:	40078793          	addi	a5,a5,1024 # f42400 <_data_lma+0xf3dc1c>
    2c36:	973e                	add	a4,a4,a5
    2c38:	82e1aa23          	sw	a4,-1996(gp) # 200000a4 <sys_clk>
E:\GITKraken\Dual-core_Communication_Demo\Dual-core_Communication_Demo\MASTER\obj/../Libraries/board/board.c:13
    //初始化DEBUG串口
    uart_init(DEBUG_UART, DEBUG_UART_BAUD, DEBUG_UART_TX_PIN, DEBUG_UART_RX_PIN);
    2c3c:	4685                	li	a3,1
    2c3e:	4601                	li	a2,0
    2c40:	67f1                	lui	a5,0x1c
    2c42:	20078593          	addi	a1,a5,512 # 1c200 <_data_lma+0x17a1c>
    2c46:	4501                	li	a0,0
    2c48:	3d8d                	jal	2aba <uart_init>
E:\GITKraken\Dual-core_Communication_Demo\Dual-core_Communication_Demo\MASTER\obj/../Libraries/board/board.c:14
}
    2c4a:	0001                	nop
    2c4c:	40b2                	lw	ra,12(sp)
    2c4e:	4422                	lw	s0,8(sp)
    2c50:	0141                	addi	sp,sp,16
    2c52:	8082                	ret

00002c54 <_write>:
_write():
E:\GITKraken\Dual-core_Communication_Demo\Dual-core_Communication_Demo\MASTER\obj/../Libraries/board/board.c:25
//  @since      v1.0
//  Sample usage:              重定向printf到DEBUG串口上
//-------------------------------------------------------------------------------------------------------------------
#if (1 == PRINTF_ENABLE)
int _write(int fd, char *buf, int size)
{
    2c54:	7179                	addi	sp,sp,-48
    2c56:	d606                	sw	ra,44(sp)
    2c58:	d422                	sw	s0,40(sp)
    2c5a:	1800                	addi	s0,sp,48
    2c5c:	fca42e23          	sw	a0,-36(s0)
    2c60:	fcb42c23          	sw	a1,-40(s0)
    2c64:	fcc42a23          	sw	a2,-44(s0)
E:\GITKraken\Dual-core_Communication_Demo\Dual-core_Communication_Demo\MASTER\obj/../Libraries/board/board.c:27
    int i;
    for(i=0; i<size; i++)
    2c68:	fe042623          	sw	zero,-20(s0)
    2c6c:	a099                	j	2cb2 <_write+0x5e>
E:\GITKraken\Dual-core_Communication_Demo\Dual-core_Communication_Demo\MASTER\obj/../Libraries/board/board.c:29
    {
        while (USART_GetFlagStatus((USART_TypeDef*)UARTN[DEBUG_UART], USART_FLAG_TC) == RESET);
    2c6e:	0001                	nop
E:\GITKraken\Dual-core_Communication_Demo\Dual-core_Communication_Demo\MASTER\obj/../Libraries/board/board.c:29 (discriminator 1)
    2c70:	6791                	lui	a5,0x4
    2c72:	6f87a783          	lw	a5,1784(a5) # 46f8 <UARTN>
    2c76:	04000593          	li	a1,64
    2c7a:	853e                	mv	a0,a5
    2c7c:	be5fe0ef          	jal	ra,1860 <USART_GetFlagStatus>
    2c80:	87aa                	mv	a5,a0
    2c82:	d7fd                	beqz	a5,2c70 <_write+0x1c>
E:\GITKraken\Dual-core_Communication_Demo\Dual-core_Communication_Demo\MASTER\obj/../Libraries/board/board.c:30 (discriminator 2)
        USART_SendData((USART_TypeDef*)UARTN[DEBUG_UART], *buf++);
    2c84:	6791                	lui	a5,0x4
    2c86:	6f87a783          	lw	a5,1784(a5) # 46f8 <UARTN>
    2c8a:	86be                	mv	a3,a5
    2c8c:	fd842783          	lw	a5,-40(s0)
    2c90:	00178713          	addi	a4,a5,1
    2c94:	fce42c23          	sw	a4,-40(s0)
    2c98:	00078783          	lb	a5,0(a5)
    2c9c:	07c2                	slli	a5,a5,0x10
    2c9e:	83c1                	srli	a5,a5,0x10
    2ca0:	85be                	mv	a1,a5
    2ca2:	8536                	mv	a0,a3
    2ca4:	b69fe0ef          	jal	ra,180c <USART_SendData>
E:\GITKraken\Dual-core_Communication_Demo\Dual-core_Communication_Demo\MASTER\obj/../Libraries/board/board.c:27 (discriminator 2)
    for(i=0; i<size; i++)
    2ca8:	fec42783          	lw	a5,-20(s0)
    2cac:	0785                	addi	a5,a5,1
    2cae:	fef42623          	sw	a5,-20(s0)
E:\GITKraken\Dual-core_Communication_Demo\Dual-core_Communication_Demo\MASTER\obj/../Libraries/board/board.c:27 (discriminator 1)
    2cb2:	fec42703          	lw	a4,-20(s0)
    2cb6:	fd442783          	lw	a5,-44(s0)
    2cba:	faf74ae3          	blt	a4,a5,2c6e <_write+0x1a>
E:\GITKraken\Dual-core_Communication_Demo\Dual-core_Communication_Demo\MASTER\obj/../Libraries/board/board.c:32
    }
    return size;
    2cbe:	fd442783          	lw	a5,-44(s0)
E:\GITKraken\Dual-core_Communication_Demo\Dual-core_Communication_Demo\MASTER\obj/../Libraries/board/board.c:33
}
    2cc2:	853e                	mv	a0,a5
    2cc4:	50b2                	lw	ra,44(sp)
    2cc6:	5422                	lw	s0,40(sp)
    2cc8:	6145                	addi	sp,sp,48
    2cca:	8082                	ret

00002ccc <SetSysClock>:
SetSysClock():
E:\GITKraken\Dual-core_Communication_Demo\Dual-core_Communication_Demo\MASTER\obj/../Libraries/board/clock_config.c:11
* Description    : Sets System clock frequency to 72MHz and configure HCLK, PCLK2 and PCLK1 prescalers.
* Input          : None
* Return         : None
*******************************************************************************************/
static void SetSysClock(void)
{
    2ccc:	1101                	addi	sp,sp,-32
    2cce:	ce22                	sw	s0,28(sp)
    2cd0:	1000                	addi	s0,sp,32
E:\GITKraken\Dual-core_Communication_Demo\Dual-core_Communication_Demo\MASTER\obj/../Libraries/board/clock_config.c:12
    __IO uint32_t StartUpCounter = 0, HSEStatus = 0;
    2cd2:	fe042623          	sw	zero,-20(s0)
    2cd6:	fe042423          	sw	zero,-24(s0)
E:\GITKraken\Dual-core_Communication_Demo\Dual-core_Communication_Demo\MASTER\obj/../Libraries/board/clock_config.c:14

    RCC->CTLR |= ((uint32_t)RCC_HSEON);
    2cda:	400217b7          	lui	a5,0x40021
    2cde:	4394                	lw	a3,0(a5)
    2ce0:	400217b7          	lui	a5,0x40021
    2ce4:	6741                	lui	a4,0x10
    2ce6:	8f55                	or	a4,a4,a3
    2ce8:	c398                	sw	a4,0(a5)
E:\GITKraken\Dual-core_Communication_Demo\Dual-core_Communication_Demo\MASTER\obj/../Libraries/board/clock_config.c:19 (discriminator 2)

    /* Wait till HSE is ready and if Time out is reached exit */
    do
    {
        HSEStatus = RCC->CTLR & RCC_HSERDY;
    2cea:	400217b7          	lui	a5,0x40021
    2cee:	4398                	lw	a4,0(a5)
    2cf0:	000207b7          	lui	a5,0x20
    2cf4:	8ff9                	and	a5,a5,a4
    2cf6:	fef42423          	sw	a5,-24(s0)
E:\GITKraken\Dual-core_Communication_Demo\Dual-core_Communication_Demo\MASTER\obj/../Libraries/board/clock_config.c:20 (discriminator 2)
        StartUpCounter++;
    2cfa:	fec42783          	lw	a5,-20(s0)
    2cfe:	0785                	addi	a5,a5,1
    2d00:	fef42623          	sw	a5,-20(s0)
E:\GITKraken\Dual-core_Communication_Demo\Dual-core_Communication_Demo\MASTER\obj/../Libraries/board/clock_config.c:21 (discriminator 2)
    } while((HSEStatus == 0) && (StartUpCounter != HSE_STARTUP_TIMEOUT));
    2d04:	fe842783          	lw	a5,-24(s0)
    2d08:	e799                	bnez	a5,2d16 <SetSysClock+0x4a>
E:\GITKraken\Dual-core_Communication_Demo\Dual-core_Communication_Demo\MASTER\obj/../Libraries/board/clock_config.c:21 (discriminator 1)
    2d0a:	fec42703          	lw	a4,-20(s0)
    2d0e:	50000793          	li	a5,1280
    2d12:	fcf71ce3          	bne	a4,a5,2cea <SetSysClock+0x1e>
E:\GITKraken\Dual-core_Communication_Demo\Dual-core_Communication_Demo\MASTER\obj/../Libraries/board/clock_config.c:23

    if ((RCC->CTLR & RCC_HSERDY) != RESET)
    2d16:	400217b7          	lui	a5,0x40021
    2d1a:	4398                	lw	a4,0(a5)
    2d1c:	000207b7          	lui	a5,0x20
    2d20:	8ff9                	and	a5,a5,a4
    2d22:	c789                	beqz	a5,2d2c <SetSysClock+0x60>
E:\GITKraken\Dual-core_Communication_Demo\Dual-core_Communication_Demo\MASTER\obj/../Libraries/board/clock_config.c:25
    {
        HSEStatus = (uint32_t)0x01;
    2d24:	4785                	li	a5,1
    2d26:	fef42423          	sw	a5,-24(s0)
    2d2a:	a019                	j	2d30 <SetSysClock+0x64>
E:\GITKraken\Dual-core_Communication_Demo\Dual-core_Communication_Demo\MASTER\obj/../Libraries/board/clock_config.c:29
    }
    else
    {
        HSEStatus = (uint32_t)0x00;
    2d2c:	fe042423          	sw	zero,-24(s0)
E:\GITKraken\Dual-core_Communication_Demo\Dual-core_Communication_Demo\MASTER\obj/../Libraries/board/clock_config.c:32
    }

    if (HSEStatus == (uint32_t)0x01)
    2d30:	fe842703          	lw	a4,-24(s0)
    2d34:	4785                	li	a5,1
    2d36:	0cf71763          	bne	a4,a5,2e04 <SetSysClock+0x138>
E:\GITKraken\Dual-core_Communication_Demo\Dual-core_Communication_Demo\MASTER\obj/../Libraries/board/clock_config.c:35
    {
        /* Enable Prefetch Buffer */
        FLASH->ACTLR |= FLASH_ACTLR_PRFTBE;
    2d3a:	400227b7          	lui	a5,0x40022
    2d3e:	4398                	lw	a4,0(a5)
    2d40:	400227b7          	lui	a5,0x40022
    2d44:	01076713          	ori	a4,a4,16
    2d48:	c398                	sw	a4,0(a5)
E:\GITKraken\Dual-core_Communication_Demo\Dual-core_Communication_Demo\MASTER\obj/../Libraries/board/clock_config.c:38

        /* Flash 2 wait state */
        FLASH->ACTLR &= (uint32_t)((uint32_t)~FLASH_ACTLR_LATENCY);
    2d4a:	400227b7          	lui	a5,0x40022
    2d4e:	4398                	lw	a4,0(a5)
    2d50:	400227b7          	lui	a5,0x40022
    2d54:	9b71                	andi	a4,a4,-4
    2d56:	c398                	sw	a4,0(a5)
E:\GITKraken\Dual-core_Communication_Demo\Dual-core_Communication_Demo\MASTER\obj/../Libraries/board/clock_config.c:39
        FLASH->ACTLR |= (uint32_t)FLASH_ACTLR_LATENCY_2;
    2d58:	400227b7          	lui	a5,0x40022
    2d5c:	4398                	lw	a4,0(a5)
    2d5e:	400227b7          	lui	a5,0x40022
    2d62:	00276713          	ori	a4,a4,2
    2d66:	c398                	sw	a4,0(a5)
E:\GITKraken\Dual-core_Communication_Demo\Dual-core_Communication_Demo\MASTER\obj/../Libraries/board/clock_config.c:42

        /* HCLK = SYSCLK */
        RCC->CFGR0 |= (uint32_t)RCC_HPRE_DIV1;
    2d68:	40021737          	lui	a4,0x40021
    2d6c:	400217b7          	lui	a5,0x40021
    2d70:	4358                	lw	a4,4(a4)
    2d72:	c3d8                	sw	a4,4(a5)
E:\GITKraken\Dual-core_Communication_Demo\Dual-core_Communication_Demo\MASTER\obj/../Libraries/board/clock_config.c:44
        /* PCLK2 = HCLK */
        RCC->CFGR0 |= (uint32_t)RCC_PPRE2_DIV1;
    2d74:	40021737          	lui	a4,0x40021
    2d78:	400217b7          	lui	a5,0x40021
    2d7c:	4358                	lw	a4,4(a4)
    2d7e:	c3d8                	sw	a4,4(a5)
E:\GITKraken\Dual-core_Communication_Demo\Dual-core_Communication_Demo\MASTER\obj/../Libraries/board/clock_config.c:46
        /* PCLK1 = HCLK */
        RCC->CFGR0 |= (uint32_t)RCC_PPRE1_DIV1;
    2d80:	40021737          	lui	a4,0x40021
    2d84:	400217b7          	lui	a5,0x40021
    2d88:	4358                	lw	a4,4(a4)
    2d8a:	c3d8                	sw	a4,4(a5)
E:\GITKraken\Dual-core_Communication_Demo\Dual-core_Communication_Demo\MASTER\obj/../Libraries/board/clock_config.c:49


        RCC->CFGR0 &= (uint32_t)((uint32_t)~(RCC_PLLSRC | RCC_PLLXTPRE |
    2d8c:	400217b7          	lui	a5,0x40021
    2d90:	43d4                	lw	a3,4(a5)
    2d92:	400217b7          	lui	a5,0x40021
    2d96:	ffc10737          	lui	a4,0xffc10
    2d9a:	177d                	addi	a4,a4,-1
    2d9c:	8f75                	and	a4,a4,a3
    2d9e:	c3d8                	sw	a4,4(a5)
E:\GITKraken\Dual-core_Communication_Demo\Dual-core_Communication_Demo\MASTER\obj/../Libraries/board/clock_config.c:52
                                            RCC_PLLMULL));
        /*  PLL configuration: PLLCLK = HSE * ?  */
        RCC->CFGR0 |= (uint32_t)(RCC_PLLSRC_HSE | RCC_PLLMULL11);
    2da0:	400217b7          	lui	a5,0x40021
    2da4:	43d4                	lw	a3,4(a5)
    2da6:	400217b7          	lui	a5,0x40021
    2daa:	00250737          	lui	a4,0x250
    2dae:	8f55                	or	a4,a4,a3
    2db0:	c3d8                	sw	a4,4(a5)
E:\GITKraken\Dual-core_Communication_Demo\Dual-core_Communication_Demo\MASTER\obj/../Libraries/board/clock_config.c:54
        /* Enable PLL */
        RCC->CTLR |= RCC_PLLON;
    2db2:	400217b7          	lui	a5,0x40021
    2db6:	4394                	lw	a3,0(a5)
    2db8:	400217b7          	lui	a5,0x40021
    2dbc:	01000737          	lui	a4,0x1000
    2dc0:	8f55                	or	a4,a4,a3
    2dc2:	c398                	sw	a4,0(a5)
E:\GITKraken\Dual-core_Communication_Demo\Dual-core_Communication_Demo\MASTER\obj/../Libraries/board/clock_config.c:56
        /* Wait till PLL is ready */
        while((RCC->CTLR & RCC_PLLRDY) == 0)
    2dc4:	0001                	nop
E:\GITKraken\Dual-core_Communication_Demo\Dual-core_Communication_Demo\MASTER\obj/../Libraries/board/clock_config.c:56 (discriminator 1)
    2dc6:	400217b7          	lui	a5,0x40021
    2dca:	4398                	lw	a4,0(a5)
    2dcc:	020007b7          	lui	a5,0x2000
    2dd0:	8ff9                	and	a5,a5,a4
    2dd2:	dbf5                	beqz	a5,2dc6 <SetSysClock+0xfa>
E:\GITKraken\Dual-core_Communication_Demo\Dual-core_Communication_Demo\MASTER\obj/../Libraries/board/clock_config.c:60
        {
        }
        /* Select PLL as system clock source */
        RCC->CFGR0 &= (uint32_t)((uint32_t)~(RCC_SW));
    2dd4:	400217b7          	lui	a5,0x40021
    2dd8:	43d8                	lw	a4,4(a5)
    2dda:	400217b7          	lui	a5,0x40021
    2dde:	9b71                	andi	a4,a4,-4
    2de0:	c3d8                	sw	a4,4(a5)
E:\GITKraken\Dual-core_Communication_Demo\Dual-core_Communication_Demo\MASTER\obj/../Libraries/board/clock_config.c:61
        RCC->CFGR0 |= (uint32_t)RCC_SW_PLL;
    2de2:	400217b7          	lui	a5,0x40021
    2de6:	43d8                	lw	a4,4(a5)
    2de8:	400217b7          	lui	a5,0x40021
    2dec:	00276713          	ori	a4,a4,2
    2df0:	c3d8                	sw	a4,4(a5)
E:\GITKraken\Dual-core_Communication_Demo\Dual-core_Communication_Demo\MASTER\obj/../Libraries/board/clock_config.c:63
        /* Wait till PLL is used as system clock source */
        while ((RCC->CFGR0 & (uint32_t)RCC_SWS) != (uint32_t)0x08)
    2df2:	0001                	nop
E:\GITKraken\Dual-core_Communication_Demo\Dual-core_Communication_Demo\MASTER\obj/../Libraries/board/clock_config.c:63 (discriminator 1)
    2df4:	400217b7          	lui	a5,0x40021
    2df8:	43dc                	lw	a5,4(a5)
    2dfa:	00c7f713          	andi	a4,a5,12
    2dfe:	47a1                	li	a5,8
    2e00:	fef71ae3          	bne	a4,a5,2df4 <SetSysClock+0x128>
E:\GITKraken\Dual-core_Communication_Demo\Dual-core_Communication_Demo\MASTER\obj/../Libraries/board/clock_config.c:74
        /*
         * If HSE fails to start-up, the application will have wrong clock
     * configuration. User can add here some code to deal with this error
         */
    }
}
    2e04:	0001                	nop
    2e06:	4472                	lw	s0,28(sp)
    2e08:	6105                	addi	sp,sp,32
    2e0a:	8082                	ret

00002e0c <SystemInit>:
SystemInit():
E:\GITKraken\Dual-core_Communication_Demo\Dual-core_Communication_Demo\MASTER\obj/../Libraries/board/clock_config.c:84
*                  the PLL and update the SystemCoreClock variable.
* Input          : None
* Return         : None
*******************************************************************************************/
void SystemInit (void)
{
    2e0c:	1141                	addi	sp,sp,-16
    2e0e:	c606                	sw	ra,12(sp)
    2e10:	c422                	sw	s0,8(sp)
    2e12:	0800                	addi	s0,sp,16
E:\GITKraken\Dual-core_Communication_Demo\Dual-core_Communication_Demo\MASTER\obj/../Libraries/board/clock_config.c:85
    RCC->CTLR |= (uint32_t)0x00000001;
    2e14:	400217b7          	lui	a5,0x40021
    2e18:	4398                	lw	a4,0(a5)
    2e1a:	400217b7          	lui	a5,0x40021
    2e1e:	00176713          	ori	a4,a4,1
    2e22:	c398                	sw	a4,0(a5)
E:\GITKraken\Dual-core_Communication_Demo\Dual-core_Communication_Demo\MASTER\obj/../Libraries/board/clock_config.c:86
    RCC->CFGR0 &= (uint32_t)0xF8FF0000;
    2e24:	400217b7          	lui	a5,0x40021
    2e28:	43d4                	lw	a3,4(a5)
    2e2a:	400217b7          	lui	a5,0x40021
    2e2e:	f8ff0737          	lui	a4,0xf8ff0
    2e32:	8f75                	and	a4,a4,a3
    2e34:	c3d8                	sw	a4,4(a5)
E:\GITKraken\Dual-core_Communication_Demo\Dual-core_Communication_Demo\MASTER\obj/../Libraries/board/clock_config.c:87
    RCC->CTLR &= (uint32_t)0xFEF6FFFF;
    2e36:	400217b7          	lui	a5,0x40021
    2e3a:	4394                	lw	a3,0(a5)
    2e3c:	400217b7          	lui	a5,0x40021
    2e40:	fef70737          	lui	a4,0xfef70
    2e44:	177d                	addi	a4,a4,-1
    2e46:	8f75                	and	a4,a4,a3
    2e48:	c398                	sw	a4,0(a5)
E:\GITKraken\Dual-core_Communication_Demo\Dual-core_Communication_Demo\MASTER\obj/../Libraries/board/clock_config.c:88
    RCC->CTLR &= (uint32_t)0xFFFBFFFF;
    2e4a:	400217b7          	lui	a5,0x40021
    2e4e:	4394                	lw	a3,0(a5)
    2e50:	400217b7          	lui	a5,0x40021
    2e54:	fffc0737          	lui	a4,0xfffc0
    2e58:	177d                	addi	a4,a4,-1
    2e5a:	8f75                	and	a4,a4,a3
    2e5c:	c398                	sw	a4,0(a5)
E:\GITKraken\Dual-core_Communication_Demo\Dual-core_Communication_Demo\MASTER\obj/../Libraries/board/clock_config.c:89
    RCC->CFGR0 &= (uint32_t)0xFF80FFFF;
    2e5e:	400217b7          	lui	a5,0x40021
    2e62:	43d4                	lw	a3,4(a5)
    2e64:	400217b7          	lui	a5,0x40021
    2e68:	ff810737          	lui	a4,0xff810
    2e6c:	177d                	addi	a4,a4,-1
    2e6e:	8f75                	and	a4,a4,a3
    2e70:	c3d8                	sw	a4,4(a5)
E:\GITKraken\Dual-core_Communication_Demo\Dual-core_Communication_Demo\MASTER\obj/../Libraries/board/clock_config.c:90
    RCC->INTR = 0x009F0000;
    2e72:	400217b7          	lui	a5,0x40021
    2e76:	009f0737          	lui	a4,0x9f0
    2e7a:	c798                	sw	a4,8(a5)
E:\GITKraken\Dual-core_Communication_Demo\Dual-core_Communication_Demo\MASTER\obj/../Libraries/board/clock_config.c:91
    SetSysClock();
    2e7c:	3d81                	jal	2ccc <SetSysClock>
E:\GITKraken\Dual-core_Communication_Demo\Dual-core_Communication_Demo\MASTER\obj/../Libraries/board/clock_config.c:92
}
    2e7e:	0001                	nop
    2e80:	40b2                	lw	ra,12(sp)
    2e82:	4422                	lw	s0,8(sp)
    2e84:	0141                	addi	sp,sp,16
    2e86:	8082                	ret

00002e88 <__assert_func>:
__assert_func():
    2e88:	80818793          	addi	a5,gp,-2040 # 20000078 <_impure_ptr>
    2e8c:	439c                	lw	a5,0(a5)
    2e8e:	1141                	addi	sp,sp,-16
    2e90:	8832                	mv	a6,a2
    2e92:	c606                	sw	ra,12(sp)
    2e94:	88aa                	mv	a7,a0
    2e96:	872e                	mv	a4,a1
    2e98:	47c8                	lw	a0,12(a5)
    2e9a:	8636                	mv	a2,a3
    2e9c:	00002797          	auipc	a5,0x2
    2ea0:	86c78793          	addi	a5,a5,-1940 # 4708 <UARTN+0x10>
    2ea4:	00081763          	bnez	a6,2eb2 <__assert_func+0x2a>
    2ea8:	00002797          	auipc	a5,0x2
    2eac:	86c78793          	addi	a5,a5,-1940 # 4714 <UARTN+0x1c>
    2eb0:	883e                	mv	a6,a5
    2eb2:	86c6                	mv	a3,a7
    2eb4:	00002597          	auipc	a1,0x2
    2eb8:	86458593          	addi	a1,a1,-1948 # 4718 <UARTN+0x20>
    2ebc:	2019                	jal	2ec2 <fiprintf>
    2ebe:	0af000ef          	jal	ra,376c <abort>

00002ec2 <fiprintf>:
fprintf():
    2ec2:	7139                	addi	sp,sp,-64
    2ec4:	d432                	sw	a2,40(sp)
    2ec6:	d636                	sw	a3,44(sp)
    2ec8:	da3e                	sw	a5,52(sp)
    2eca:	d83a                	sw	a4,48(sp)
    2ecc:	dc42                	sw	a6,56(sp)
    2ece:	de46                	sw	a7,60(sp)
    2ed0:	80818793          	addi	a5,gp,-2040 # 20000078 <_impure_ptr>
    2ed4:	862e                	mv	a2,a1
    2ed6:	85aa                	mv	a1,a0
    2ed8:	4388                	lw	a0,0(a5)
    2eda:	1034                	addi	a3,sp,40
    2edc:	ce06                	sw	ra,28(sp)
    2ede:	c636                	sw	a3,12(sp)
    2ee0:	288d                	jal	2f52 <_vfiprintf_r>
    2ee2:	40f2                	lw	ra,28(sp)
    2ee4:	6121                	addi	sp,sp,64
    2ee6:	8082                	ret

00002ee8 <__sfputc_r>:
__sfputc_r():
    2ee8:	461c                	lw	a5,8(a2)
    2eea:	17fd                	addi	a5,a5,-1
    2eec:	c61c                	sw	a5,8(a2)
    2eee:	0007d963          	bgez	a5,2f00 <__sfputc_r+0x18>
    2ef2:	4e18                	lw	a4,24(a2)
    2ef4:	00e7c563          	blt	a5,a4,2efe <__sfputc_r+0x16>
    2ef8:	47a9                	li	a5,10
    2efa:	00f59363          	bne	a1,a5,2f00 <__sfputc_r+0x18>
    2efe:	a54d                	j	35a0 <__swbuf_r>
    2f00:	421c                	lw	a5,0(a2)
    2f02:	852e                	mv	a0,a1
    2f04:	00178713          	addi	a4,a5,1
    2f08:	c218                	sw	a4,0(a2)
    2f0a:	00b78023          	sb	a1,0(a5)
    2f0e:	8082                	ret

00002f10 <__sfputs_r>:
__sfputs_r():
    2f10:	1101                	addi	sp,sp,-32
    2f12:	cc22                	sw	s0,24(sp)
    2f14:	ca26                	sw	s1,20(sp)
    2f16:	c84a                	sw	s2,16(sp)
    2f18:	c64e                	sw	s3,12(sp)
    2f1a:	c452                	sw	s4,8(sp)
    2f1c:	ce06                	sw	ra,28(sp)
    2f1e:	892a                	mv	s2,a0
    2f20:	89ae                	mv	s3,a1
    2f22:	8432                	mv	s0,a2
    2f24:	00d604b3          	add	s1,a2,a3
    2f28:	5a7d                	li	s4,-1
    2f2a:	00941463          	bne	s0,s1,2f32 <__sfputs_r+0x22>
    2f2e:	4501                	li	a0,0
    2f30:	a809                	j	2f42 <__sfputs_r+0x32>
    2f32:	00044583          	lbu	a1,0(s0)
    2f36:	864e                	mv	a2,s3
    2f38:	854a                	mv	a0,s2
    2f3a:	377d                	jal	2ee8 <__sfputc_r>
    2f3c:	0405                	addi	s0,s0,1
    2f3e:	ff4516e3          	bne	a0,s4,2f2a <__sfputs_r+0x1a>
    2f42:	40f2                	lw	ra,28(sp)
    2f44:	4462                	lw	s0,24(sp)
    2f46:	44d2                	lw	s1,20(sp)
    2f48:	4942                	lw	s2,16(sp)
    2f4a:	49b2                	lw	s3,12(sp)
    2f4c:	4a22                	lw	s4,8(sp)
    2f4e:	6105                	addi	sp,sp,32
    2f50:	8082                	ret

00002f52 <_vfiprintf_r>:
_vfiprintf_r():
    2f52:	7135                	addi	sp,sp,-160
    2f54:	cd22                	sw	s0,152(sp)
    2f56:	cb26                	sw	s1,148(sp)
    2f58:	c94a                	sw	s2,144(sp)
    2f5a:	c74e                	sw	s3,140(sp)
    2f5c:	cf06                	sw	ra,156(sp)
    2f5e:	c552                	sw	s4,136(sp)
    2f60:	c356                	sw	s5,132(sp)
    2f62:	c15a                	sw	s6,128(sp)
    2f64:	dede                	sw	s7,124(sp)
    2f66:	dce2                	sw	s8,120(sp)
    2f68:	dae6                	sw	s9,116(sp)
    2f6a:	89aa                	mv	s3,a0
    2f6c:	84ae                	mv	s1,a1
    2f6e:	8932                	mv	s2,a2
    2f70:	8436                	mv	s0,a3
    2f72:	c509                	beqz	a0,2f7c <_vfiprintf_r+0x2a>
    2f74:	4d1c                	lw	a5,24(a0)
    2f76:	e399                	bnez	a5,2f7c <_vfiprintf_r+0x2a>
    2f78:	25d000ef          	jal	ra,39d4 <__sinit>
    2f7c:	00002797          	auipc	a5,0x2
    2f80:	82878793          	addi	a5,a5,-2008 # 47a4 <__sf_fake_stdin>
    2f84:	0cf49c63          	bne	s1,a5,305c <_vfiprintf_r+0x10a>
    2f88:	0049a483          	lw	s1,4(s3)
    2f8c:	00c4d783          	lhu	a5,12(s1)
    2f90:	8ba1                	andi	a5,a5,8
    2f92:	c7fd                	beqz	a5,3080 <_vfiprintf_r+0x12e>
    2f94:	489c                	lw	a5,16(s1)
    2f96:	c7ed                	beqz	a5,3080 <_vfiprintf_r+0x12e>
    2f98:	02000793          	li	a5,32
    2f9c:	02f104a3          	sb	a5,41(sp)
    2fa0:	03000793          	li	a5,48
    2fa4:	d202                	sw	zero,36(sp)
    2fa6:	02f10523          	sb	a5,42(sp)
    2faa:	c622                	sw	s0,12(sp)
    2fac:	02500b93          	li	s7,37
    2fb0:	00001a97          	auipc	s5,0x1
    2fb4:	798a8a93          	addi	s5,s5,1944 # 4748 <UARTN+0x50>
    2fb8:	4c05                	li	s8,1
    2fba:	4b29                	li	s6,10
    2fbc:	844a                	mv	s0,s2
    2fbe:	00044783          	lbu	a5,0(s0)
    2fc2:	c399                	beqz	a5,2fc8 <_vfiprintf_r+0x76>
    2fc4:	0f779063          	bne	a5,s7,30a4 <_vfiprintf_r+0x152>
    2fc8:	41240cb3          	sub	s9,s0,s2
    2fcc:	000c8d63          	beqz	s9,2fe6 <_vfiprintf_r+0x94>
    2fd0:	86e6                	mv	a3,s9
    2fd2:	864a                	mv	a2,s2
    2fd4:	85a6                	mv	a1,s1
    2fd6:	854e                	mv	a0,s3
    2fd8:	3f25                	jal	2f10 <__sfputs_r>
    2fda:	57fd                	li	a5,-1
    2fdc:	1ef50863          	beq	a0,a5,31cc <_vfiprintf_r+0x27a>
    2fe0:	5692                	lw	a3,36(sp)
    2fe2:	96e6                	add	a3,a3,s9
    2fe4:	d236                	sw	a3,36(sp)
    2fe6:	00044783          	lbu	a5,0(s0)
    2fea:	1e078163          	beqz	a5,31cc <_vfiprintf_r+0x27a>
    2fee:	57fd                	li	a5,-1
    2ff0:	00140913          	addi	s2,s0,1
    2ff4:	c802                	sw	zero,16(sp)
    2ff6:	ce02                	sw	zero,28(sp)
    2ff8:	ca3e                	sw	a5,20(sp)
    2ffa:	cc02                	sw	zero,24(sp)
    2ffc:	040109a3          	sb	zero,83(sp)
    3000:	d482                	sw	zero,104(sp)
    3002:	00094583          	lbu	a1,0(s2)
    3006:	4615                	li	a2,5
    3008:	8556                	mv	a0,s5
    300a:	42d000ef          	jal	ra,3c36 <memchr>
    300e:	00190413          	addi	s0,s2,1
    3012:	47c2                	lw	a5,16(sp)
    3014:	e951                	bnez	a0,30a8 <_vfiprintf_r+0x156>
    3016:	0107f713          	andi	a4,a5,16
    301a:	c709                	beqz	a4,3024 <_vfiprintf_r+0xd2>
    301c:	02000713          	li	a4,32
    3020:	04e109a3          	sb	a4,83(sp)
    3024:	0087f713          	andi	a4,a5,8
    3028:	c709                	beqz	a4,3032 <_vfiprintf_r+0xe0>
    302a:	02b00713          	li	a4,43
    302e:	04e109a3          	sb	a4,83(sp)
    3032:	00094683          	lbu	a3,0(s2)
    3036:	02a00713          	li	a4,42
    303a:	06e68f63          	beq	a3,a4,30b8 <_vfiprintf_r+0x166>
    303e:	47f2                	lw	a5,28(sp)
    3040:	844a                	mv	s0,s2
    3042:	4681                	li	a3,0
    3044:	4625                	li	a2,9
    3046:	00044703          	lbu	a4,0(s0)
    304a:	00140593          	addi	a1,s0,1
    304e:	fd070713          	addi	a4,a4,-48 # 9effd0 <_data_lma+0x9eb7ec>
    3052:	0ae67863          	bgeu	a2,a4,3102 <_vfiprintf_r+0x1b0>
    3056:	caad                	beqz	a3,30c8 <_vfiprintf_r+0x176>
    3058:	ce3e                	sw	a5,28(sp)
    305a:	a0bd                	j	30c8 <_vfiprintf_r+0x176>
    305c:	00001797          	auipc	a5,0x1
    3060:	76878793          	addi	a5,a5,1896 # 47c4 <__sf_fake_stdout>
    3064:	00f49563          	bne	s1,a5,306e <_vfiprintf_r+0x11c>
    3068:	0089a483          	lw	s1,8(s3)
    306c:	b705                	j	2f8c <_vfiprintf_r+0x3a>
    306e:	00001797          	auipc	a5,0x1
    3072:	71678793          	addi	a5,a5,1814 # 4784 <__sf_fake_stderr>
    3076:	f0f49be3          	bne	s1,a5,2f8c <_vfiprintf_r+0x3a>
    307a:	00c9a483          	lw	s1,12(s3)
    307e:	b739                	j	2f8c <_vfiprintf_r+0x3a>
    3080:	85a6                	mv	a1,s1
    3082:	854e                	mv	a0,s3
    3084:	2bf1                	jal	3660 <__swsetup_r>
    3086:	d909                	beqz	a0,2f98 <_vfiprintf_r+0x46>
    3088:	557d                	li	a0,-1
    308a:	40fa                	lw	ra,156(sp)
    308c:	446a                	lw	s0,152(sp)
    308e:	44da                	lw	s1,148(sp)
    3090:	494a                	lw	s2,144(sp)
    3092:	49ba                	lw	s3,140(sp)
    3094:	4a2a                	lw	s4,136(sp)
    3096:	4a9a                	lw	s5,132(sp)
    3098:	4b0a                	lw	s6,128(sp)
    309a:	5bf6                	lw	s7,124(sp)
    309c:	5c66                	lw	s8,120(sp)
    309e:	5cd6                	lw	s9,116(sp)
    30a0:	610d                	addi	sp,sp,160
    30a2:	8082                	ret
    30a4:	0405                	addi	s0,s0,1
    30a6:	bf21                	j	2fbe <_vfiprintf_r+0x6c>
    30a8:	41550533          	sub	a0,a0,s5
    30ac:	00ac1533          	sll	a0,s8,a0
    30b0:	8fc9                	or	a5,a5,a0
    30b2:	c83e                	sw	a5,16(sp)
    30b4:	8922                	mv	s2,s0
    30b6:	b7b1                	j	3002 <_vfiprintf_r+0xb0>
    30b8:	4732                	lw	a4,12(sp)
    30ba:	00470693          	addi	a3,a4,4
    30be:	4318                	lw	a4,0(a4)
    30c0:	c636                	sw	a3,12(sp)
    30c2:	02074963          	bltz	a4,30f4 <_vfiprintf_r+0x1a2>
    30c6:	ce3a                	sw	a4,28(sp)
    30c8:	00044703          	lbu	a4,0(s0)
    30cc:	02e00793          	li	a5,46
    30d0:	04f71f63          	bne	a4,a5,312e <_vfiprintf_r+0x1dc>
    30d4:	00144703          	lbu	a4,1(s0)
    30d8:	02a00793          	li	a5,42
    30dc:	02f71b63          	bne	a4,a5,3112 <_vfiprintf_r+0x1c0>
    30e0:	47b2                	lw	a5,12(sp)
    30e2:	0409                	addi	s0,s0,2
    30e4:	00478713          	addi	a4,a5,4
    30e8:	439c                	lw	a5,0(a5)
    30ea:	c63a                	sw	a4,12(sp)
    30ec:	0207c163          	bltz	a5,310e <_vfiprintf_r+0x1bc>
    30f0:	ca3e                	sw	a5,20(sp)
    30f2:	a835                	j	312e <_vfiprintf_r+0x1dc>
    30f4:	40e00733          	neg	a4,a4
    30f8:	0027e793          	ori	a5,a5,2
    30fc:	ce3a                	sw	a4,28(sp)
    30fe:	c83e                	sw	a5,16(sp)
    3100:	b7e1                	j	30c8 <_vfiprintf_r+0x176>
    3102:	036787b3          	mul	a5,a5,s6
    3106:	4685                	li	a3,1
    3108:	842e                	mv	s0,a1
    310a:	97ba                	add	a5,a5,a4
    310c:	bf2d                	j	3046 <_vfiprintf_r+0xf4>
    310e:	57fd                	li	a5,-1
    3110:	b7c5                	j	30f0 <_vfiprintf_r+0x19e>
    3112:	0405                	addi	s0,s0,1
    3114:	ca02                	sw	zero,20(sp)
    3116:	4681                	li	a3,0
    3118:	4781                	li	a5,0
    311a:	4625                	li	a2,9
    311c:	00044703          	lbu	a4,0(s0)
    3120:	00140593          	addi	a1,s0,1
    3124:	fd070713          	addi	a4,a4,-48
    3128:	06e67863          	bgeu	a2,a4,3198 <_vfiprintf_r+0x246>
    312c:	f2f1                	bnez	a3,30f0 <_vfiprintf_r+0x19e>
    312e:	00044583          	lbu	a1,0(s0)
    3132:	460d                	li	a2,3
    3134:	00001517          	auipc	a0,0x1
    3138:	61c50513          	addi	a0,a0,1564 # 4750 <UARTN+0x58>
    313c:	2fb000ef          	jal	ra,3c36 <memchr>
    3140:	cd11                	beqz	a0,315c <_vfiprintf_r+0x20a>
    3142:	00001797          	auipc	a5,0x1
    3146:	60e78793          	addi	a5,a5,1550 # 4750 <UARTN+0x58>
    314a:	8d1d                	sub	a0,a0,a5
    314c:	04000793          	li	a5,64
    3150:	00a797b3          	sll	a5,a5,a0
    3154:	4542                	lw	a0,16(sp)
    3156:	0405                	addi	s0,s0,1
    3158:	8d5d                	or	a0,a0,a5
    315a:	c82a                	sw	a0,16(sp)
    315c:	00044583          	lbu	a1,0(s0)
    3160:	4619                	li	a2,6
    3162:	00001517          	auipc	a0,0x1
    3166:	5f250513          	addi	a0,a0,1522 # 4754 <UARTN+0x5c>
    316a:	00140913          	addi	s2,s0,1
    316e:	02b10423          	sb	a1,40(sp)
    3172:	2c5000ef          	jal	ra,3c36 <memchr>
    3176:	c13d                	beqz	a0,31dc <_vfiprintf_r+0x28a>
    3178:	ffffd797          	auipc	a5,0xffffd
    317c:	e8878793          	addi	a5,a5,-376 # 0 <_sinit>
    3180:	e795                	bnez	a5,31ac <_vfiprintf_r+0x25a>
    3182:	4742                	lw	a4,16(sp)
    3184:	47b2                	lw	a5,12(sp)
    3186:	10077713          	andi	a4,a4,256
    318a:	cf09                	beqz	a4,31a4 <_vfiprintf_r+0x252>
    318c:	0791                	addi	a5,a5,4
    318e:	c63e                	sw	a5,12(sp)
    3190:	5792                	lw	a5,36(sp)
    3192:	97d2                	add	a5,a5,s4
    3194:	d23e                	sw	a5,36(sp)
    3196:	b51d                	j	2fbc <_vfiprintf_r+0x6a>
    3198:	036787b3          	mul	a5,a5,s6
    319c:	4685                	li	a3,1
    319e:	842e                	mv	s0,a1
    31a0:	97ba                	add	a5,a5,a4
    31a2:	bfad                	j	311c <_vfiprintf_r+0x1ca>
    31a4:	079d                	addi	a5,a5,7
    31a6:	9be1                	andi	a5,a5,-8
    31a8:	07a1                	addi	a5,a5,8
    31aa:	b7d5                	j	318e <_vfiprintf_r+0x23c>
    31ac:	0078                	addi	a4,sp,12
    31ae:	00000697          	auipc	a3,0x0
    31b2:	d6268693          	addi	a3,a3,-670 # 2f10 <__sfputs_r>
    31b6:	8626                	mv	a2,s1
    31b8:	080c                	addi	a1,sp,16
    31ba:	854e                	mv	a0,s3
    31bc:	00000097          	auipc	ra,0x0
    31c0:	000000e7          	jalr	zero # 0 <_sinit>
    31c4:	57fd                	li	a5,-1
    31c6:	8a2a                	mv	s4,a0
    31c8:	fcf514e3          	bne	a0,a5,3190 <_vfiprintf_r+0x23e>
    31cc:	00c4d783          	lhu	a5,12(s1)
    31d0:	0407f793          	andi	a5,a5,64
    31d4:	ea079ae3          	bnez	a5,3088 <_vfiprintf_r+0x136>
    31d8:	5512                	lw	a0,36(sp)
    31da:	bd45                	j	308a <_vfiprintf_r+0x138>
    31dc:	0078                	addi	a4,sp,12
    31de:	00000697          	auipc	a3,0x0
    31e2:	d3268693          	addi	a3,a3,-718 # 2f10 <__sfputs_r>
    31e6:	8626                	mv	a2,s1
    31e8:	080c                	addi	a1,sp,16
    31ea:	854e                	mv	a0,s3
    31ec:	2a01                	jal	32fc <_printf_i>
    31ee:	bfd9                	j	31c4 <_vfiprintf_r+0x272>

000031f0 <_printf_common>:
_printf_common():
    31f0:	7179                	addi	sp,sp,-48
    31f2:	ca56                	sw	s5,20(sp)
    31f4:	499c                	lw	a5,16(a1)
    31f6:	8aba                	mv	s5,a4
    31f8:	4598                	lw	a4,8(a1)
    31fa:	d422                	sw	s0,40(sp)
    31fc:	d226                	sw	s1,36(sp)
    31fe:	ce4e                	sw	s3,28(sp)
    3200:	cc52                	sw	s4,24(sp)
    3202:	d606                	sw	ra,44(sp)
    3204:	d04a                	sw	s2,32(sp)
    3206:	c85a                	sw	s6,16(sp)
    3208:	c65e                	sw	s7,12(sp)
    320a:	89aa                	mv	s3,a0
    320c:	842e                	mv	s0,a1
    320e:	84b2                	mv	s1,a2
    3210:	8a36                	mv	s4,a3
    3212:	00e7d363          	bge	a5,a4,3218 <_printf_common+0x28>
    3216:	87ba                	mv	a5,a4
    3218:	c09c                	sw	a5,0(s1)
    321a:	04344703          	lbu	a4,67(s0)
    321e:	c319                	beqz	a4,3224 <_printf_common+0x34>
    3220:	0785                	addi	a5,a5,1
    3222:	c09c                	sw	a5,0(s1)
    3224:	401c                	lw	a5,0(s0)
    3226:	0207f793          	andi	a5,a5,32
    322a:	c781                	beqz	a5,3232 <_printf_common+0x42>
    322c:	409c                	lw	a5,0(s1)
    322e:	0789                	addi	a5,a5,2
    3230:	c09c                	sw	a5,0(s1)
    3232:	00042903          	lw	s2,0(s0)
    3236:	00697913          	andi	s2,s2,6
    323a:	00091a63          	bnez	s2,324e <_printf_common+0x5e>
    323e:	01940b13          	addi	s6,s0,25
    3242:	5bfd                	li	s7,-1
    3244:	445c                	lw	a5,12(s0)
    3246:	4098                	lw	a4,0(s1)
    3248:	8f99                	sub	a5,a5,a4
    324a:	04f94c63          	blt	s2,a5,32a2 <_printf_common+0xb2>
    324e:	401c                	lw	a5,0(s0)
    3250:	04344683          	lbu	a3,67(s0)
    3254:	0207f793          	andi	a5,a5,32
    3258:	00d036b3          	snez	a3,a3
    325c:	eba5                	bnez	a5,32cc <_printf_common+0xdc>
    325e:	04340613          	addi	a2,s0,67
    3262:	85d2                	mv	a1,s4
    3264:	854e                	mv	a0,s3
    3266:	9a82                	jalr	s5
    3268:	57fd                	li	a5,-1
    326a:	04f50363          	beq	a0,a5,32b0 <_printf_common+0xc0>
    326e:	401c                	lw	a5,0(s0)
    3270:	4611                	li	a2,4
    3272:	4098                	lw	a4,0(s1)
    3274:	8b99                	andi	a5,a5,6
    3276:	4454                	lw	a3,12(s0)
    3278:	4481                	li	s1,0
    327a:	00c79763          	bne	a5,a2,3288 <_printf_common+0x98>
    327e:	40e684b3          	sub	s1,a3,a4
    3282:	0004d363          	bgez	s1,3288 <_printf_common+0x98>
    3286:	4481                	li	s1,0
    3288:	441c                	lw	a5,8(s0)
    328a:	4818                	lw	a4,16(s0)
    328c:	00f75463          	bge	a4,a5,3294 <_printf_common+0xa4>
    3290:	8f99                	sub	a5,a5,a4
    3292:	94be                	add	s1,s1,a5
    3294:	4901                	li	s2,0
    3296:	0469                	addi	s0,s0,26
    3298:	5b7d                	li	s6,-1
    329a:	05249863          	bne	s1,s2,32ea <_printf_common+0xfa>
    329e:	4501                	li	a0,0
    32a0:	a809                	j	32b2 <_printf_common+0xc2>
    32a2:	4685                	li	a3,1
    32a4:	865a                	mv	a2,s6
    32a6:	85d2                	mv	a1,s4
    32a8:	854e                	mv	a0,s3
    32aa:	9a82                	jalr	s5
    32ac:	01751e63          	bne	a0,s7,32c8 <_printf_common+0xd8>
    32b0:	557d                	li	a0,-1
    32b2:	50b2                	lw	ra,44(sp)
    32b4:	5422                	lw	s0,40(sp)
    32b6:	5492                	lw	s1,36(sp)
    32b8:	5902                	lw	s2,32(sp)
    32ba:	49f2                	lw	s3,28(sp)
    32bc:	4a62                	lw	s4,24(sp)
    32be:	4ad2                	lw	s5,20(sp)
    32c0:	4b42                	lw	s6,16(sp)
    32c2:	4bb2                	lw	s7,12(sp)
    32c4:	6145                	addi	sp,sp,48
    32c6:	8082                	ret
    32c8:	0905                	addi	s2,s2,1
    32ca:	bfad                	j	3244 <_printf_common+0x54>
    32cc:	00d40733          	add	a4,s0,a3
    32d0:	03000613          	li	a2,48
    32d4:	04c701a3          	sb	a2,67(a4)
    32d8:	04544703          	lbu	a4,69(s0)
    32dc:	00168793          	addi	a5,a3,1
    32e0:	97a2                	add	a5,a5,s0
    32e2:	0689                	addi	a3,a3,2
    32e4:	04e781a3          	sb	a4,67(a5)
    32e8:	bf9d                	j	325e <_printf_common+0x6e>
    32ea:	4685                	li	a3,1
    32ec:	8622                	mv	a2,s0
    32ee:	85d2                	mv	a1,s4
    32f0:	854e                	mv	a0,s3
    32f2:	9a82                	jalr	s5
    32f4:	fb650ee3          	beq	a0,s6,32b0 <_printf_common+0xc0>
    32f8:	0905                	addi	s2,s2,1
    32fa:	b745                	j	329a <_printf_common+0xaa>

000032fc <_printf_i>:
_printf_i():
    32fc:	7179                	addi	sp,sp,-48
    32fe:	d422                	sw	s0,40(sp)
    3300:	d226                	sw	s1,36(sp)
    3302:	d04a                	sw	s2,32(sp)
    3304:	ce4e                	sw	s3,28(sp)
    3306:	d606                	sw	ra,44(sp)
    3308:	cc52                	sw	s4,24(sp)
    330a:	ca56                	sw	s5,20(sp)
    330c:	c85a                	sw	s6,16(sp)
    330e:	89b6                	mv	s3,a3
    3310:	0185c683          	lbu	a3,24(a1)
    3314:	06e00793          	li	a5,110
    3318:	8932                	mv	s2,a2
    331a:	84aa                	mv	s1,a0
    331c:	842e                	mv	s0,a1
    331e:	04358613          	addi	a2,a1,67
    3322:	1ef68163          	beq	a3,a5,3504 <_printf_i+0x208>
    3326:	06d7e263          	bltu	a5,a3,338a <_printf_i+0x8e>
    332a:	06300793          	li	a5,99
    332e:	0af68263          	beq	a3,a5,33d2 <_printf_i+0xd6>
    3332:	00d7ed63          	bltu	a5,a3,334c <_printf_i+0x50>
    3336:	1e068b63          	beqz	a3,352c <_printf_i+0x230>
    333a:	05800793          	li	a5,88
    333e:	16f68763          	beq	a3,a5,34ac <_printf_i+0x1b0>
    3342:	04240a93          	addi	s5,s0,66
    3346:	04d40123          	sb	a3,66(s0)
    334a:	a869                	j	33e4 <_printf_i+0xe8>
    334c:	06400793          	li	a5,100
    3350:	00f68663          	beq	a3,a5,335c <_printf_i+0x60>
    3354:	06900793          	li	a5,105
    3358:	fef695e3          	bne	a3,a5,3342 <_printf_i+0x46>
    335c:	401c                	lw	a5,0(s0)
    335e:	4308                	lw	a0,0(a4)
    3360:	0807f693          	andi	a3,a5,128
    3364:	00450593          	addi	a1,a0,4
    3368:	c2c1                	beqz	a3,33e8 <_printf_i+0xec>
    336a:	411c                	lw	a5,0(a0)
    336c:	c30c                	sw	a1,0(a4)
    336e:	0007d863          	bgez	a5,337e <_printf_i+0x82>
    3372:	02d00713          	li	a4,45
    3376:	40f007b3          	neg	a5,a5
    337a:	04e401a3          	sb	a4,67(s0)
    337e:	00001697          	auipc	a3,0x1
    3382:	3de68693          	addi	a3,a3,990 # 475c <UARTN+0x64>
    3386:	4729                	li	a4,10
    3388:	a065                	j	3430 <_printf_i+0x134>
    338a:	07300793          	li	a5,115
    338e:	1af68363          	beq	a3,a5,3534 <_printf_i+0x238>
    3392:	00d7ef63          	bltu	a5,a3,33b0 <_printf_i+0xb4>
    3396:	06f00793          	li	a5,111
    339a:	04f68f63          	beq	a3,a5,33f8 <_printf_i+0xfc>
    339e:	07000793          	li	a5,112
    33a2:	faf690e3          	bne	a3,a5,3342 <_printf_i+0x46>
    33a6:	419c                	lw	a5,0(a1)
    33a8:	0207e793          	ori	a5,a5,32
    33ac:	c19c                	sw	a5,0(a1)
    33ae:	a809                	j	33c0 <_printf_i+0xc4>
    33b0:	07500793          	li	a5,117
    33b4:	04f68263          	beq	a3,a5,33f8 <_printf_i+0xfc>
    33b8:	07800793          	li	a5,120
    33bc:	f8f693e3          	bne	a3,a5,3342 <_printf_i+0x46>
    33c0:	07800793          	li	a5,120
    33c4:	04f402a3          	sb	a5,69(s0)
    33c8:	00001697          	auipc	a3,0x1
    33cc:	3a868693          	addi	a3,a3,936 # 4770 <UARTN+0x78>
    33d0:	a0e5                	j	34b8 <_printf_i+0x1bc>
    33d2:	431c                	lw	a5,0(a4)
    33d4:	04258a93          	addi	s5,a1,66
    33d8:	00478693          	addi	a3,a5,4
    33dc:	439c                	lw	a5,0(a5)
    33de:	c314                	sw	a3,0(a4)
    33e0:	04f58123          	sb	a5,66(a1)
    33e4:	4785                	li	a5,1
    33e6:	a2b5                	j	3552 <_printf_i+0x256>
    33e8:	0407f693          	andi	a3,a5,64
    33ec:	411c                	lw	a5,0(a0)
    33ee:	c30c                	sw	a1,0(a4)
    33f0:	debd                	beqz	a3,336e <_printf_i+0x72>
    33f2:	07c2                	slli	a5,a5,0x10
    33f4:	87c1                	srai	a5,a5,0x10
    33f6:	bfa5                	j	336e <_printf_i+0x72>
    33f8:	400c                	lw	a1,0(s0)
    33fa:	431c                	lw	a5,0(a4)
    33fc:	0805f813          	andi	a6,a1,128
    3400:	00478513          	addi	a0,a5,4
    3404:	00080563          	beqz	a6,340e <_printf_i+0x112>
    3408:	c308                	sw	a0,0(a4)
    340a:	439c                	lw	a5,0(a5)
    340c:	a039                	j	341a <_printf_i+0x11e>
    340e:	0405f593          	andi	a1,a1,64
    3412:	c308                	sw	a0,0(a4)
    3414:	d9fd                	beqz	a1,340a <_printf_i+0x10e>
    3416:	0007d783          	lhu	a5,0(a5)
    341a:	06f00713          	li	a4,111
    341e:	0ce68b63          	beq	a3,a4,34f4 <_printf_i+0x1f8>
    3422:	00001697          	auipc	a3,0x1
    3426:	33a68693          	addi	a3,a3,826 # 475c <UARTN+0x64>
    342a:	4729                	li	a4,10
    342c:	040401a3          	sb	zero,67(s0)
    3430:	404c                	lw	a1,4(s0)
    3432:	c40c                	sw	a1,8(s0)
    3434:	0005c563          	bltz	a1,343e <_printf_i+0x142>
    3438:	4008                	lw	a0,0(s0)
    343a:	996d                	andi	a0,a0,-5
    343c:	c008                	sw	a0,0(s0)
    343e:	e399                	bnez	a5,3444 <_printf_i+0x148>
    3440:	8ab2                	mv	s5,a2
    3442:	cd91                	beqz	a1,345e <_printf_i+0x162>
    3444:	8ab2                	mv	s5,a2
    3446:	02e7f5b3          	remu	a1,a5,a4
    344a:	1afd                	addi	s5,s5,-1
    344c:	95b6                	add	a1,a1,a3
    344e:	0005c583          	lbu	a1,0(a1)
    3452:	00ba8023          	sb	a1,0(s5)
    3456:	02e7d5b3          	divu	a1,a5,a4
    345a:	0ae7f363          	bgeu	a5,a4,3500 <_printf_i+0x204>
    345e:	47a1                	li	a5,8
    3460:	00f71e63          	bne	a4,a5,347c <_printf_i+0x180>
    3464:	401c                	lw	a5,0(s0)
    3466:	8b85                	andi	a5,a5,1
    3468:	cb91                	beqz	a5,347c <_printf_i+0x180>
    346a:	4058                	lw	a4,4(s0)
    346c:	481c                	lw	a5,16(s0)
    346e:	00e7c763          	blt	a5,a4,347c <_printf_i+0x180>
    3472:	03000793          	li	a5,48
    3476:	fefa8fa3          	sb	a5,-1(s5)
    347a:	1afd                	addi	s5,s5,-1
    347c:	41560633          	sub	a2,a2,s5
    3480:	c810                	sw	a2,16(s0)
    3482:	874e                	mv	a4,s3
    3484:	86ca                	mv	a3,s2
    3486:	0070                	addi	a2,sp,12
    3488:	85a2                	mv	a1,s0
    348a:	8526                	mv	a0,s1
    348c:	d65ff0ef          	jal	ra,31f0 <_printf_common>
    3490:	5a7d                	li	s4,-1
    3492:	0d451463          	bne	a0,s4,355a <_printf_i+0x25e>
    3496:	557d                	li	a0,-1
    3498:	50b2                	lw	ra,44(sp)
    349a:	5422                	lw	s0,40(sp)
    349c:	5492                	lw	s1,36(sp)
    349e:	5902                	lw	s2,32(sp)
    34a0:	49f2                	lw	s3,28(sp)
    34a2:	4a62                	lw	s4,24(sp)
    34a4:	4ad2                	lw	s5,20(sp)
    34a6:	4b42                	lw	s6,16(sp)
    34a8:	6145                	addi	sp,sp,48
    34aa:	8082                	ret
    34ac:	04d582a3          	sb	a3,69(a1)
    34b0:	00001697          	auipc	a3,0x1
    34b4:	2ac68693          	addi	a3,a3,684 # 475c <UARTN+0x64>
    34b8:	400c                	lw	a1,0(s0)
    34ba:	4308                	lw	a0,0(a4)
    34bc:	0805f813          	andi	a6,a1,128
    34c0:	411c                	lw	a5,0(a0)
    34c2:	0511                	addi	a0,a0,4
    34c4:	02080063          	beqz	a6,34e4 <_printf_i+0x1e8>
    34c8:	c308                	sw	a0,0(a4)
    34ca:	0015f713          	andi	a4,a1,1
    34ce:	c701                	beqz	a4,34d6 <_printf_i+0x1da>
    34d0:	0205e593          	ori	a1,a1,32
    34d4:	c00c                	sw	a1,0(s0)
    34d6:	4741                	li	a4,16
    34d8:	fbb1                	bnez	a5,342c <_printf_i+0x130>
    34da:	400c                	lw	a1,0(s0)
    34dc:	fdf5f593          	andi	a1,a1,-33
    34e0:	c00c                	sw	a1,0(s0)
    34e2:	b7a9                	j	342c <_printf_i+0x130>
    34e4:	0405f813          	andi	a6,a1,64
    34e8:	c308                	sw	a0,0(a4)
    34ea:	fe0800e3          	beqz	a6,34ca <_printf_i+0x1ce>
    34ee:	07c2                	slli	a5,a5,0x10
    34f0:	83c1                	srli	a5,a5,0x10
    34f2:	bfe1                	j	34ca <_printf_i+0x1ce>
    34f4:	00001697          	auipc	a3,0x1
    34f8:	26868693          	addi	a3,a3,616 # 475c <UARTN+0x64>
    34fc:	4721                	li	a4,8
    34fe:	b73d                	j	342c <_printf_i+0x130>
    3500:	87ae                	mv	a5,a1
    3502:	b791                	j	3446 <_printf_i+0x14a>
    3504:	4194                	lw	a3,0(a1)
    3506:	431c                	lw	a5,0(a4)
    3508:	49cc                	lw	a1,20(a1)
    350a:	0806f813          	andi	a6,a3,128
    350e:	00478513          	addi	a0,a5,4
    3512:	00080663          	beqz	a6,351e <_printf_i+0x222>
    3516:	c308                	sw	a0,0(a4)
    3518:	439c                	lw	a5,0(a5)
    351a:	c38c                	sw	a1,0(a5)
    351c:	a801                	j	352c <_printf_i+0x230>
    351e:	c308                	sw	a0,0(a4)
    3520:	0406f693          	andi	a3,a3,64
    3524:	439c                	lw	a5,0(a5)
    3526:	daf5                	beqz	a3,351a <_printf_i+0x21e>
    3528:	00b79023          	sh	a1,0(a5)
    352c:	00042823          	sw	zero,16(s0)
    3530:	8ab2                	mv	s5,a2
    3532:	bf81                	j	3482 <_printf_i+0x186>
    3534:	431c                	lw	a5,0(a4)
    3536:	41d0                	lw	a2,4(a1)
    3538:	4581                	li	a1,0
    353a:	00478693          	addi	a3,a5,4
    353e:	c314                	sw	a3,0(a4)
    3540:	0007aa83          	lw	s5,0(a5)
    3544:	8556                	mv	a0,s5
    3546:	2dc5                	jal	3c36 <memchr>
    3548:	c501                	beqz	a0,3550 <_printf_i+0x254>
    354a:	41550533          	sub	a0,a0,s5
    354e:	c048                	sw	a0,4(s0)
    3550:	405c                	lw	a5,4(s0)
    3552:	c81c                	sw	a5,16(s0)
    3554:	040401a3          	sb	zero,67(s0)
    3558:	b72d                	j	3482 <_printf_i+0x186>
    355a:	4814                	lw	a3,16(s0)
    355c:	8656                	mv	a2,s5
    355e:	85ca                	mv	a1,s2
    3560:	8526                	mv	a0,s1
    3562:	9982                	jalr	s3
    3564:	f34509e3          	beq	a0,s4,3496 <_printf_i+0x19a>
    3568:	401c                	lw	a5,0(s0)
    356a:	8b89                	andi	a5,a5,2
    356c:	e78d                	bnez	a5,3596 <_printf_i+0x29a>
    356e:	47b2                	lw	a5,12(sp)
    3570:	4448                	lw	a0,12(s0)
    3572:	f2f553e3          	bge	a0,a5,3498 <_printf_i+0x19c>
    3576:	853e                	mv	a0,a5
    3578:	b705                	j	3498 <_printf_i+0x19c>
    357a:	4685                	li	a3,1
    357c:	8656                	mv	a2,s5
    357e:	85ca                	mv	a1,s2
    3580:	8526                	mv	a0,s1
    3582:	9982                	jalr	s3
    3584:	f16509e3          	beq	a0,s6,3496 <_printf_i+0x19a>
    3588:	0a05                	addi	s4,s4,1
    358a:	445c                	lw	a5,12(s0)
    358c:	4732                	lw	a4,12(sp)
    358e:	8f99                	sub	a5,a5,a4
    3590:	fefa45e3          	blt	s4,a5,357a <_printf_i+0x27e>
    3594:	bfe9                	j	356e <_printf_i+0x272>
    3596:	4a01                	li	s4,0
    3598:	01940a93          	addi	s5,s0,25
    359c:	5b7d                	li	s6,-1
    359e:	b7f5                	j	358a <_printf_i+0x28e>

000035a0 <__swbuf_r>:
__swbuf_r():
    35a0:	1101                	addi	sp,sp,-32
    35a2:	cc22                	sw	s0,24(sp)
    35a4:	ca26                	sw	s1,20(sp)
    35a6:	c84a                	sw	s2,16(sp)
    35a8:	ce06                	sw	ra,28(sp)
    35aa:	c64e                	sw	s3,12(sp)
    35ac:	84aa                	mv	s1,a0
    35ae:	892e                	mv	s2,a1
    35b0:	8432                	mv	s0,a2
    35b2:	c501                	beqz	a0,35ba <__swbuf_r+0x1a>
    35b4:	4d1c                	lw	a5,24(a0)
    35b6:	e391                	bnez	a5,35ba <__swbuf_r+0x1a>
    35b8:	2931                	jal	39d4 <__sinit>
    35ba:	00001797          	auipc	a5,0x1
    35be:	1ea78793          	addi	a5,a5,490 # 47a4 <__sf_fake_stdin>
    35c2:	06f41963          	bne	s0,a5,3634 <__swbuf_r+0x94>
    35c6:	40c0                	lw	s0,4(s1)
    35c8:	4c1c                	lw	a5,24(s0)
    35ca:	c41c                	sw	a5,8(s0)
    35cc:	00c45783          	lhu	a5,12(s0)
    35d0:	8ba1                	andi	a5,a5,8
    35d2:	c3c9                	beqz	a5,3654 <__swbuf_r+0xb4>
    35d4:	481c                	lw	a5,16(s0)
    35d6:	cfbd                	beqz	a5,3654 <__swbuf_r+0xb4>
    35d8:	481c                	lw	a5,16(s0)
    35da:	4008                	lw	a0,0(s0)
    35dc:	0ff97993          	andi	s3,s2,255
    35e0:	0ff97913          	andi	s2,s2,255
    35e4:	8d1d                	sub	a0,a0,a5
    35e6:	485c                	lw	a5,20(s0)
    35e8:	00f54663          	blt	a0,a5,35f4 <__swbuf_r+0x54>
    35ec:	85a2                	mv	a1,s0
    35ee:	8526                	mv	a0,s1
    35f0:	24d9                	jal	38b6 <_fflush_r>
    35f2:	e52d                	bnez	a0,365c <__swbuf_r+0xbc>
    35f4:	441c                	lw	a5,8(s0)
    35f6:	0505                	addi	a0,a0,1
    35f8:	17fd                	addi	a5,a5,-1
    35fa:	c41c                	sw	a5,8(s0)
    35fc:	401c                	lw	a5,0(s0)
    35fe:	00178713          	addi	a4,a5,1
    3602:	c018                	sw	a4,0(s0)
    3604:	01378023          	sb	s3,0(a5)
    3608:	485c                	lw	a5,20(s0)
    360a:	00a78963          	beq	a5,a0,361c <__swbuf_r+0x7c>
    360e:	00c45783          	lhu	a5,12(s0)
    3612:	8b85                	andi	a5,a5,1
    3614:	cb81                	beqz	a5,3624 <__swbuf_r+0x84>
    3616:	47a9                	li	a5,10
    3618:	00f91663          	bne	s2,a5,3624 <__swbuf_r+0x84>
    361c:	85a2                	mv	a1,s0
    361e:	8526                	mv	a0,s1
    3620:	2c59                	jal	38b6 <_fflush_r>
    3622:	ed0d                	bnez	a0,365c <__swbuf_r+0xbc>
    3624:	40f2                	lw	ra,28(sp)
    3626:	4462                	lw	s0,24(sp)
    3628:	854a                	mv	a0,s2
    362a:	44d2                	lw	s1,20(sp)
    362c:	4942                	lw	s2,16(sp)
    362e:	49b2                	lw	s3,12(sp)
    3630:	6105                	addi	sp,sp,32
    3632:	8082                	ret
    3634:	00001797          	auipc	a5,0x1
    3638:	19078793          	addi	a5,a5,400 # 47c4 <__sf_fake_stdout>
    363c:	00f41463          	bne	s0,a5,3644 <__swbuf_r+0xa4>
    3640:	4480                	lw	s0,8(s1)
    3642:	b759                	j	35c8 <__swbuf_r+0x28>
    3644:	00001797          	auipc	a5,0x1
    3648:	14078793          	addi	a5,a5,320 # 4784 <__sf_fake_stderr>
    364c:	f6f41ee3          	bne	s0,a5,35c8 <__swbuf_r+0x28>
    3650:	44c0                	lw	s0,12(s1)
    3652:	bf9d                	j	35c8 <__swbuf_r+0x28>
    3654:	85a2                	mv	a1,s0
    3656:	8526                	mv	a0,s1
    3658:	2021                	jal	3660 <__swsetup_r>
    365a:	dd3d                	beqz	a0,35d8 <__swbuf_r+0x38>
    365c:	597d                	li	s2,-1
    365e:	b7d9                	j	3624 <__swbuf_r+0x84>

00003660 <__swsetup_r>:
__swsetup_r():
    3660:	1141                	addi	sp,sp,-16
    3662:	80818793          	addi	a5,gp,-2040 # 20000078 <_impure_ptr>
    3666:	c226                	sw	s1,4(sp)
    3668:	4384                	lw	s1,0(a5)
    366a:	c422                	sw	s0,8(sp)
    366c:	c04a                	sw	s2,0(sp)
    366e:	c606                	sw	ra,12(sp)
    3670:	892a                	mv	s2,a0
    3672:	842e                	mv	s0,a1
    3674:	c489                	beqz	s1,367e <__swsetup_r+0x1e>
    3676:	4c9c                	lw	a5,24(s1)
    3678:	e399                	bnez	a5,367e <__swsetup_r+0x1e>
    367a:	8526                	mv	a0,s1
    367c:	2ea1                	jal	39d4 <__sinit>
    367e:	00001797          	auipc	a5,0x1
    3682:	12678793          	addi	a5,a5,294 # 47a4 <__sf_fake_stdin>
    3686:	02f41c63          	bne	s0,a5,36be <__swsetup_r+0x5e>
    368a:	40c0                	lw	s0,4(s1)
    368c:	00c41703          	lh	a4,12(s0)
    3690:	01071793          	slli	a5,a4,0x10
    3694:	83c1                	srli	a5,a5,0x10
    3696:	0087f693          	andi	a3,a5,8
    369a:	eeb5                	bnez	a3,3716 <__swsetup_r+0xb6>
    369c:	0107f693          	andi	a3,a5,16
    36a0:	ee9d                	bnez	a3,36de <__swsetup_r+0x7e>
    36a2:	47a5                	li	a5,9
    36a4:	00f92023          	sw	a5,0(s2)
    36a8:	04076713          	ori	a4,a4,64
    36ac:	00e41623          	sh	a4,12(s0)
    36b0:	557d                	li	a0,-1
    36b2:	40b2                	lw	ra,12(sp)
    36b4:	4422                	lw	s0,8(sp)
    36b6:	4492                	lw	s1,4(sp)
    36b8:	4902                	lw	s2,0(sp)
    36ba:	0141                	addi	sp,sp,16
    36bc:	8082                	ret
    36be:	00001797          	auipc	a5,0x1
    36c2:	10678793          	addi	a5,a5,262 # 47c4 <__sf_fake_stdout>
    36c6:	00f41463          	bne	s0,a5,36ce <__swsetup_r+0x6e>
    36ca:	4480                	lw	s0,8(s1)
    36cc:	b7c1                	j	368c <__swsetup_r+0x2c>
    36ce:	00001797          	auipc	a5,0x1
    36d2:	0b678793          	addi	a5,a5,182 # 4784 <__sf_fake_stderr>
    36d6:	faf41be3          	bne	s0,a5,368c <__swsetup_r+0x2c>
    36da:	44c0                	lw	s0,12(s1)
    36dc:	bf45                	j	368c <__swsetup_r+0x2c>
    36de:	8b91                	andi	a5,a5,4
    36e0:	c78d                	beqz	a5,370a <__swsetup_r+0xaa>
    36e2:	584c                	lw	a1,52(s0)
    36e4:	c989                	beqz	a1,36f6 <__swsetup_r+0x96>
    36e6:	04440793          	addi	a5,s0,68
    36ea:	00f58463          	beq	a1,a5,36f2 <__swsetup_r+0x92>
    36ee:	854a                	mv	a0,s2
    36f0:	2385                	jal	3c50 <_free_r>
    36f2:	02042a23          	sw	zero,52(s0)
    36f6:	00c45783          	lhu	a5,12(s0)
    36fa:	00042223          	sw	zero,4(s0)
    36fe:	fdb7f793          	andi	a5,a5,-37
    3702:	00f41623          	sh	a5,12(s0)
    3706:	481c                	lw	a5,16(s0)
    3708:	c01c                	sw	a5,0(s0)
    370a:	00c45783          	lhu	a5,12(s0)
    370e:	0087e793          	ori	a5,a5,8
    3712:	00f41623          	sh	a5,12(s0)
    3716:	481c                	lw	a5,16(s0)
    3718:	ef81                	bnez	a5,3730 <__swsetup_r+0xd0>
    371a:	00c45783          	lhu	a5,12(s0)
    371e:	20000713          	li	a4,512
    3722:	2807f793          	andi	a5,a5,640
    3726:	00e78563          	beq	a5,a4,3730 <__swsetup_r+0xd0>
    372a:	85a2                	mv	a1,s0
    372c:	854a                	mv	a0,s2
    372e:	21b5                	jal	3b9a <__smakebuf_r>
    3730:	00c45783          	lhu	a5,12(s0)
    3734:	0017f713          	andi	a4,a5,1
    3738:	c705                	beqz	a4,3760 <__swsetup_r+0x100>
    373a:	485c                	lw	a5,20(s0)
    373c:	00042423          	sw	zero,8(s0)
    3740:	40f007b3          	neg	a5,a5
    3744:	cc1c                	sw	a5,24(s0)
    3746:	481c                	lw	a5,16(s0)
    3748:	4501                	li	a0,0
    374a:	f7a5                	bnez	a5,36b2 <__swsetup_r+0x52>
    374c:	00c41783          	lh	a5,12(s0)
    3750:	0807f713          	andi	a4,a5,128
    3754:	df39                	beqz	a4,36b2 <__swsetup_r+0x52>
    3756:	0407e793          	ori	a5,a5,64
    375a:	00f41623          	sh	a5,12(s0)
    375e:	bf89                	j	36b0 <__swsetup_r+0x50>
    3760:	8b89                	andi	a5,a5,2
    3762:	4701                	li	a4,0
    3764:	e391                	bnez	a5,3768 <__swsetup_r+0x108>
    3766:	4858                	lw	a4,20(s0)
    3768:	c418                	sw	a4,8(s0)
    376a:	bff1                	j	3746 <__swsetup_r+0xe6>

0000376c <abort>:
abort():
    376c:	1141                	addi	sp,sp,-16
    376e:	4519                	li	a0,6
    3770:	c606                	sw	ra,12(sp)
    3772:	2de9                	jal	3e4c <raise>
    3774:	4505                	li	a0,1
    3776:	13f000ef          	jal	ra,40b4 <_exit>

0000377a <__sflush_r>:
__sflush_r():
    377a:	00c5d783          	lhu	a5,12(a1)
    377e:	1101                	addi	sp,sp,-32
    3780:	cc22                	sw	s0,24(sp)
    3782:	ca26                	sw	s1,20(sp)
    3784:	ce06                	sw	ra,28(sp)
    3786:	c84a                	sw	s2,16(sp)
    3788:	c64e                	sw	s3,12(sp)
    378a:	0087f713          	andi	a4,a5,8
    378e:	84aa                	mv	s1,a0
    3790:	842e                	mv	s0,a1
    3792:	ef71                	bnez	a4,386e <__sflush_r+0xf4>
    3794:	41d8                	lw	a4,4(a1)
    3796:	00e04d63          	bgtz	a4,37b0 <__sflush_r+0x36>
    379a:	41b8                	lw	a4,64(a1)
    379c:	00e04a63          	bgtz	a4,37b0 <__sflush_r+0x36>
    37a0:	4501                	li	a0,0
    37a2:	40f2                	lw	ra,28(sp)
    37a4:	4462                	lw	s0,24(sp)
    37a6:	44d2                	lw	s1,20(sp)
    37a8:	4942                	lw	s2,16(sp)
    37aa:	49b2                	lw	s3,12(sp)
    37ac:	6105                	addi	sp,sp,32
    37ae:	8082                	ret
    37b0:	5458                	lw	a4,44(s0)
    37b2:	d77d                	beqz	a4,37a0 <__sflush_r+0x26>
    37b4:	0004a903          	lw	s2,0(s1)
    37b8:	01379693          	slli	a3,a5,0x13
    37bc:	0004a023          	sw	zero,0(s1)
    37c0:	0606dd63          	bgez	a3,383a <__sflush_r+0xc0>
    37c4:	4870                	lw	a2,84(s0)
    37c6:	00c45783          	lhu	a5,12(s0)
    37ca:	8b91                	andi	a5,a5,4
    37cc:	c799                	beqz	a5,37da <__sflush_r+0x60>
    37ce:	405c                	lw	a5,4(s0)
    37d0:	8e1d                	sub	a2,a2,a5
    37d2:	585c                	lw	a5,52(s0)
    37d4:	c399                	beqz	a5,37da <__sflush_r+0x60>
    37d6:	403c                	lw	a5,64(s0)
    37d8:	8e1d                	sub	a2,a2,a5
    37da:	545c                	lw	a5,44(s0)
    37dc:	500c                	lw	a1,32(s0)
    37de:	4681                	li	a3,0
    37e0:	8526                	mv	a0,s1
    37e2:	9782                	jalr	a5
    37e4:	57fd                	li	a5,-1
    37e6:	00c45703          	lhu	a4,12(s0)
    37ea:	00f51d63          	bne	a0,a5,3804 <__sflush_r+0x8a>
    37ee:	4094                	lw	a3,0(s1)
    37f0:	47f5                	li	a5,29
    37f2:	06d7e863          	bltu	a5,a3,3862 <__sflush_r+0xe8>
    37f6:	204007b7          	lui	a5,0x20400
    37fa:	0785                	addi	a5,a5,1
    37fc:	00d7d7b3          	srl	a5,a5,a3
    3800:	8b85                	andi	a5,a5,1
    3802:	c3a5                	beqz	a5,3862 <__sflush_r+0xe8>
    3804:	481c                	lw	a5,16(s0)
    3806:	00042223          	sw	zero,4(s0)
    380a:	c01c                	sw	a5,0(s0)
    380c:	01371793          	slli	a5,a4,0x13
    3810:	0007d863          	bgez	a5,3820 <__sflush_r+0xa6>
    3814:	57fd                	li	a5,-1
    3816:	00f51463          	bne	a0,a5,381e <__sflush_r+0xa4>
    381a:	409c                	lw	a5,0(s1)
    381c:	e391                	bnez	a5,3820 <__sflush_r+0xa6>
    381e:	c868                	sw	a0,84(s0)
    3820:	584c                	lw	a1,52(s0)
    3822:	0124a023          	sw	s2,0(s1)
    3826:	ddad                	beqz	a1,37a0 <__sflush_r+0x26>
    3828:	04440793          	addi	a5,s0,68
    382c:	00f58463          	beq	a1,a5,3834 <__sflush_r+0xba>
    3830:	8526                	mv	a0,s1
    3832:	2939                	jal	3c50 <_free_r>
    3834:	02042a23          	sw	zero,52(s0)
    3838:	b7a5                	j	37a0 <__sflush_r+0x26>
    383a:	500c                	lw	a1,32(s0)
    383c:	4601                	li	a2,0
    383e:	4685                	li	a3,1
    3840:	8526                	mv	a0,s1
    3842:	9702                	jalr	a4
    3844:	57fd                	li	a5,-1
    3846:	862a                	mv	a2,a0
    3848:	f6f51fe3          	bne	a0,a5,37c6 <__sflush_r+0x4c>
    384c:	409c                	lw	a5,0(s1)
    384e:	dfa5                	beqz	a5,37c6 <__sflush_r+0x4c>
    3850:	4775                	li	a4,29
    3852:	00e78563          	beq	a5,a4,385c <__sflush_r+0xe2>
    3856:	4759                	li	a4,22
    3858:	04e79463          	bne	a5,a4,38a0 <__sflush_r+0x126>
    385c:	0124a023          	sw	s2,0(s1)
    3860:	b781                	j	37a0 <__sflush_r+0x26>
    3862:	04076713          	ori	a4,a4,64
    3866:	00e41623          	sh	a4,12(s0)
    386a:	557d                	li	a0,-1
    386c:	bf1d                	j	37a2 <__sflush_r+0x28>
    386e:	0105a983          	lw	s3,16(a1)
    3872:	f20987e3          	beqz	s3,37a0 <__sflush_r+0x26>
    3876:	0005a903          	lw	s2,0(a1)
    387a:	8b8d                	andi	a5,a5,3
    387c:	0135a023          	sw	s3,0(a1)
    3880:	41390933          	sub	s2,s2,s3
    3884:	4701                	li	a4,0
    3886:	e391                	bnez	a5,388a <__sflush_r+0x110>
    3888:	49d8                	lw	a4,20(a1)
    388a:	c418                	sw	a4,8(s0)
    388c:	f1205ae3          	blez	s2,37a0 <__sflush_r+0x26>
    3890:	541c                	lw	a5,40(s0)
    3892:	500c                	lw	a1,32(s0)
    3894:	86ca                	mv	a3,s2
    3896:	864e                	mv	a2,s3
    3898:	8526                	mv	a0,s1
    389a:	9782                	jalr	a5
    389c:	00a04963          	bgtz	a0,38ae <__sflush_r+0x134>
    38a0:	00c45783          	lhu	a5,12(s0)
    38a4:	0407e793          	ori	a5,a5,64
    38a8:	00f41623          	sh	a5,12(s0)
    38ac:	bf7d                	j	386a <__sflush_r+0xf0>
    38ae:	99aa                	add	s3,s3,a0
    38b0:	40a90933          	sub	s2,s2,a0
    38b4:	bfe1                	j	388c <__sflush_r+0x112>

000038b6 <_fflush_r>:
_fflush_r():
    38b6:	499c                	lw	a5,16(a1)
    38b8:	cfb9                	beqz	a5,3916 <_fflush_r+0x60>
    38ba:	1101                	addi	sp,sp,-32
    38bc:	cc22                	sw	s0,24(sp)
    38be:	ce06                	sw	ra,28(sp)
    38c0:	842a                	mv	s0,a0
    38c2:	c511                	beqz	a0,38ce <_fflush_r+0x18>
    38c4:	4d1c                	lw	a5,24(a0)
    38c6:	e781                	bnez	a5,38ce <_fflush_r+0x18>
    38c8:	c62e                	sw	a1,12(sp)
    38ca:	2229                	jal	39d4 <__sinit>
    38cc:	45b2                	lw	a1,12(sp)
    38ce:	00001797          	auipc	a5,0x1
    38d2:	ed678793          	addi	a5,a5,-298 # 47a4 <__sf_fake_stdin>
    38d6:	00f59b63          	bne	a1,a5,38ec <_fflush_r+0x36>
    38da:	404c                	lw	a1,4(s0)
    38dc:	00c59783          	lh	a5,12(a1)
    38e0:	c795                	beqz	a5,390c <_fflush_r+0x56>
    38e2:	8522                	mv	a0,s0
    38e4:	4462                	lw	s0,24(sp)
    38e6:	40f2                	lw	ra,28(sp)
    38e8:	6105                	addi	sp,sp,32
    38ea:	bd41                	j	377a <__sflush_r>
    38ec:	00001797          	auipc	a5,0x1
    38f0:	ed878793          	addi	a5,a5,-296 # 47c4 <__sf_fake_stdout>
    38f4:	00f59463          	bne	a1,a5,38fc <_fflush_r+0x46>
    38f8:	440c                	lw	a1,8(s0)
    38fa:	b7cd                	j	38dc <_fflush_r+0x26>
    38fc:	00001797          	auipc	a5,0x1
    3900:	e8878793          	addi	a5,a5,-376 # 4784 <__sf_fake_stderr>
    3904:	fcf59ce3          	bne	a1,a5,38dc <_fflush_r+0x26>
    3908:	444c                	lw	a1,12(s0)
    390a:	bfc9                	j	38dc <_fflush_r+0x26>
    390c:	40f2                	lw	ra,28(sp)
    390e:	4462                	lw	s0,24(sp)
    3910:	4501                	li	a0,0
    3912:	6105                	addi	sp,sp,32
    3914:	8082                	ret
    3916:	4501                	li	a0,0
    3918:	8082                	ret

0000391a <std>:
std():
    391a:	1141                	addi	sp,sp,-16
    391c:	c422                	sw	s0,8(sp)
    391e:	c606                	sw	ra,12(sp)
    3920:	842a                	mv	s0,a0
    3922:	00b51623          	sh	a1,12(a0)
    3926:	00c51723          	sh	a2,14(a0)
    392a:	00052023          	sw	zero,0(a0)
    392e:	00052223          	sw	zero,4(a0)
    3932:	00052423          	sw	zero,8(a0)
    3936:	06052223          	sw	zero,100(a0)
    393a:	00052823          	sw	zero,16(a0)
    393e:	00052a23          	sw	zero,20(a0)
    3942:	00052c23          	sw	zero,24(a0)
    3946:	4621                	li	a2,8
    3948:	4581                	li	a1,0
    394a:	05c50513          	addi	a0,a0,92
    394e:	ff2fc0ef          	jal	ra,140 <memset>
    3952:	00000797          	auipc	a5,0x0
    3956:	53078793          	addi	a5,a5,1328 # 3e82 <__sread>
    395a:	d05c                	sw	a5,36(s0)
    395c:	00000797          	auipc	a5,0x0
    3960:	55678793          	addi	a5,a5,1366 # 3eb2 <__swrite>
    3964:	d41c                	sw	a5,40(s0)
    3966:	00000797          	auipc	a5,0x0
    396a:	59a78793          	addi	a5,a5,1434 # 3f00 <__sseek>
    396e:	d45c                	sw	a5,44(s0)
    3970:	00000797          	auipc	a5,0x0
    3974:	5c678793          	addi	a5,a5,1478 # 3f36 <__sclose>
    3978:	d000                	sw	s0,32(s0)
    397a:	d81c                	sw	a5,48(s0)
    397c:	40b2                	lw	ra,12(sp)
    397e:	4422                	lw	s0,8(sp)
    3980:	0141                	addi	sp,sp,16
    3982:	8082                	ret

00003984 <_cleanup_r>:
_cleanup_r():
    3984:	00000597          	auipc	a1,0x0
    3988:	f3258593          	addi	a1,a1,-206 # 38b6 <_fflush_r>
    398c:	a2a9                	j	3ad6 <_fwalk_reent>

0000398e <__sfmoreglue>:
__sfmoreglue():
    398e:	1141                	addi	sp,sp,-16
    3990:	c226                	sw	s1,4(sp)
    3992:	06800613          	li	a2,104
    3996:	fff58493          	addi	s1,a1,-1
    399a:	02c484b3          	mul	s1,s1,a2
    399e:	c04a                	sw	s2,0(sp)
    39a0:	892e                	mv	s2,a1
    39a2:	c422                	sw	s0,8(sp)
    39a4:	c606                	sw	ra,12(sp)
    39a6:	07448593          	addi	a1,s1,116
    39aa:	26a9                	jal	3cf4 <_malloc_r>
    39ac:	842a                	mv	s0,a0
    39ae:	cd01                	beqz	a0,39c6 <__sfmoreglue+0x38>
    39b0:	00052023          	sw	zero,0(a0)
    39b4:	01252223          	sw	s2,4(a0)
    39b8:	0531                	addi	a0,a0,12
    39ba:	c408                	sw	a0,8(s0)
    39bc:	06848613          	addi	a2,s1,104
    39c0:	4581                	li	a1,0
    39c2:	f7efc0ef          	jal	ra,140 <memset>
    39c6:	8522                	mv	a0,s0
    39c8:	40b2                	lw	ra,12(sp)
    39ca:	4422                	lw	s0,8(sp)
    39cc:	4492                	lw	s1,4(sp)
    39ce:	4902                	lw	s2,0(sp)
    39d0:	0141                	addi	sp,sp,16
    39d2:	8082                	ret

000039d4 <__sinit>:
__sinit():
    39d4:	4d1c                	lw	a5,24(a0)
    39d6:	e3ad                	bnez	a5,3a38 <__sinit+0x64>
    39d8:	1141                	addi	sp,sp,-16
    39da:	c606                	sw	ra,12(sp)
    39dc:	c422                	sw	s0,8(sp)
    39de:	00000797          	auipc	a5,0x0
    39e2:	fa678793          	addi	a5,a5,-90 # 3984 <_cleanup_r>
    39e6:	d51c                	sw	a5,40(a0)
    39e8:	81418793          	addi	a5,gp,-2028 # 20000084 <_global_impure_ptr>
    39ec:	439c                	lw	a5,0(a5)
    39ee:	04052423          	sw	zero,72(a0)
    39f2:	04052623          	sw	zero,76(a0)
    39f6:	04052823          	sw	zero,80(a0)
    39fa:	00f51463          	bne	a0,a5,3a02 <__sinit+0x2e>
    39fe:	4785                	li	a5,1
    3a00:	cd1c                	sw	a5,24(a0)
    3a02:	842a                	mv	s0,a0
    3a04:	281d                	jal	3a3a <__sfp>
    3a06:	c048                	sw	a0,4(s0)
    3a08:	8522                	mv	a0,s0
    3a0a:	2805                	jal	3a3a <__sfp>
    3a0c:	c408                	sw	a0,8(s0)
    3a0e:	8522                	mv	a0,s0
    3a10:	202d                	jal	3a3a <__sfp>
    3a12:	c448                	sw	a0,12(s0)
    3a14:	4048                	lw	a0,4(s0)
    3a16:	4601                	li	a2,0
    3a18:	4591                	li	a1,4
    3a1a:	3701                	jal	391a <std>
    3a1c:	4408                	lw	a0,8(s0)
    3a1e:	4605                	li	a2,1
    3a20:	45a5                	li	a1,9
    3a22:	3de5                	jal	391a <std>
    3a24:	4448                	lw	a0,12(s0)
    3a26:	4609                	li	a2,2
    3a28:	45c9                	li	a1,18
    3a2a:	3dc5                	jal	391a <std>
    3a2c:	4785                	li	a5,1
    3a2e:	cc1c                	sw	a5,24(s0)
    3a30:	40b2                	lw	ra,12(sp)
    3a32:	4422                	lw	s0,8(sp)
    3a34:	0141                	addi	sp,sp,16
    3a36:	8082                	ret
    3a38:	8082                	ret

00003a3a <__sfp>:
__sfp():
    3a3a:	1141                	addi	sp,sp,-16
    3a3c:	81418793          	addi	a5,gp,-2028 # 20000084 <_global_impure_ptr>
    3a40:	c226                	sw	s1,4(sp)
    3a42:	4384                	lw	s1,0(a5)
    3a44:	c04a                	sw	s2,0(sp)
    3a46:	c606                	sw	ra,12(sp)
    3a48:	4c9c                	lw	a5,24(s1)
    3a4a:	c422                	sw	s0,8(sp)
    3a4c:	892a                	mv	s2,a0
    3a4e:	e399                	bnez	a5,3a54 <__sfp+0x1a>
    3a50:	8526                	mv	a0,s1
    3a52:	3749                	jal	39d4 <__sinit>
    3a54:	04848493          	addi	s1,s1,72
    3a58:	4480                	lw	s0,8(s1)
    3a5a:	40dc                	lw	a5,4(s1)
    3a5c:	17fd                	addi	a5,a5,-1
    3a5e:	0007d663          	bgez	a5,3a6a <__sfp+0x30>
    3a62:	409c                	lw	a5,0(s1)
    3a64:	cfb9                	beqz	a5,3ac2 <__sfp+0x88>
    3a66:	4084                	lw	s1,0(s1)
    3a68:	bfc5                	j	3a58 <__sfp+0x1e>
    3a6a:	00c41703          	lh	a4,12(s0)
    3a6e:	e739                	bnez	a4,3abc <__sfp+0x82>
    3a70:	77c1                	lui	a5,0xffff0
    3a72:	0785                	addi	a5,a5,1
    3a74:	06042223          	sw	zero,100(s0)
    3a78:	00042023          	sw	zero,0(s0)
    3a7c:	00042223          	sw	zero,4(s0)
    3a80:	00042423          	sw	zero,8(s0)
    3a84:	c45c                	sw	a5,12(s0)
    3a86:	00042823          	sw	zero,16(s0)
    3a8a:	00042a23          	sw	zero,20(s0)
    3a8e:	00042c23          	sw	zero,24(s0)
    3a92:	4621                	li	a2,8
    3a94:	4581                	li	a1,0
    3a96:	05c40513          	addi	a0,s0,92
    3a9a:	ea6fc0ef          	jal	ra,140 <memset>
    3a9e:	02042a23          	sw	zero,52(s0)
    3aa2:	02042c23          	sw	zero,56(s0)
    3aa6:	04042423          	sw	zero,72(s0)
    3aaa:	04042623          	sw	zero,76(s0)
    3aae:	8522                	mv	a0,s0
    3ab0:	40b2                	lw	ra,12(sp)
    3ab2:	4422                	lw	s0,8(sp)
    3ab4:	4492                	lw	s1,4(sp)
    3ab6:	4902                	lw	s2,0(sp)
    3ab8:	0141                	addi	sp,sp,16
    3aba:	8082                	ret
    3abc:	06840413          	addi	s0,s0,104
    3ac0:	bf71                	j	3a5c <__sfp+0x22>
    3ac2:	4591                	li	a1,4
    3ac4:	854a                	mv	a0,s2
    3ac6:	35e1                	jal	398e <__sfmoreglue>
    3ac8:	c088                	sw	a0,0(s1)
    3aca:	fd51                	bnez	a0,3a66 <__sfp+0x2c>
    3acc:	47b1                	li	a5,12
    3ace:	00f92023          	sw	a5,0(s2)
    3ad2:	4401                	li	s0,0
    3ad4:	bfe9                	j	3aae <__sfp+0x74>

00003ad6 <_fwalk_reent>:
_fwalk_reent():
    3ad6:	7179                	addi	sp,sp,-48
    3ad8:	d422                	sw	s0,40(sp)
    3ada:	d04a                	sw	s2,32(sp)
    3adc:	cc52                	sw	s4,24(sp)
    3ade:	ca56                	sw	s5,20(sp)
    3ae0:	c85a                	sw	s6,16(sp)
    3ae2:	c65e                	sw	s7,12(sp)
    3ae4:	d606                	sw	ra,44(sp)
    3ae6:	d226                	sw	s1,36(sp)
    3ae8:	ce4e                	sw	s3,28(sp)
    3aea:	8a2a                	mv	s4,a0
    3aec:	8aae                	mv	s5,a1
    3aee:	04850413          	addi	s0,a0,72
    3af2:	4901                	li	s2,0
    3af4:	4b05                	li	s6,1
    3af6:	5bfd                	li	s7,-1
    3af8:	ec09                	bnez	s0,3b12 <_fwalk_reent+0x3c>
    3afa:	50b2                	lw	ra,44(sp)
    3afc:	5422                	lw	s0,40(sp)
    3afe:	854a                	mv	a0,s2
    3b00:	5492                	lw	s1,36(sp)
    3b02:	5902                	lw	s2,32(sp)
    3b04:	49f2                	lw	s3,28(sp)
    3b06:	4a62                	lw	s4,24(sp)
    3b08:	4ad2                	lw	s5,20(sp)
    3b0a:	4b42                	lw	s6,16(sp)
    3b0c:	4bb2                	lw	s7,12(sp)
    3b0e:	6145                	addi	sp,sp,48
    3b10:	8082                	ret
    3b12:	4404                	lw	s1,8(s0)
    3b14:	00442983          	lw	s3,4(s0)
    3b18:	19fd                	addi	s3,s3,-1
    3b1a:	0009d463          	bgez	s3,3b22 <_fwalk_reent+0x4c>
    3b1e:	4000                	lw	s0,0(s0)
    3b20:	bfe1                	j	3af8 <_fwalk_reent+0x22>
    3b22:	00c4d783          	lhu	a5,12(s1)
    3b26:	00fb7b63          	bgeu	s6,a5,3b3c <_fwalk_reent+0x66>
    3b2a:	00e49783          	lh	a5,14(s1)
    3b2e:	01778763          	beq	a5,s7,3b3c <_fwalk_reent+0x66>
    3b32:	85a6                	mv	a1,s1
    3b34:	8552                	mv	a0,s4
    3b36:	9a82                	jalr	s5
    3b38:	00a96933          	or	s2,s2,a0
    3b3c:	06848493          	addi	s1,s1,104
    3b40:	bfe1                	j	3b18 <_fwalk_reent+0x42>

00003b42 <__swhatbuf_r>:
__swhatbuf_r():
    3b42:	7119                	addi	sp,sp,-128
    3b44:	daa6                	sw	s1,116(sp)
    3b46:	84ae                	mv	s1,a1
    3b48:	00e59583          	lh	a1,14(a1)
    3b4c:	dca2                	sw	s0,120(sp)
    3b4e:	de86                	sw	ra,124(sp)
    3b50:	8432                	mv	s0,a2
    3b52:	0005dc63          	bgez	a1,3b6a <__swhatbuf_r+0x28>
    3b56:	00c4d783          	lhu	a5,12(s1)
    3b5a:	0006a023          	sw	zero,0(a3)
    3b5e:	0807f793          	andi	a5,a5,128
    3b62:	e39d                	bnez	a5,3b88 <__swhatbuf_r+0x46>
    3b64:	40000793          	li	a5,1024
    3b68:	a015                	j	3b8c <__swhatbuf_r+0x4a>
    3b6a:	0830                	addi	a2,sp,24
    3b6c:	c636                	sw	a3,12(sp)
    3b6e:	2115                	jal	3f92 <_fstat_r>
    3b70:	46b2                	lw	a3,12(sp)
    3b72:	fe0542e3          	bltz	a0,3b56 <__swhatbuf_r+0x14>
    3b76:	4772                	lw	a4,28(sp)
    3b78:	67bd                	lui	a5,0xf
    3b7a:	8ff9                	and	a5,a5,a4
    3b7c:	7779                	lui	a4,0xffffe
    3b7e:	97ba                	add	a5,a5,a4
    3b80:	0017b793          	seqz	a5,a5
    3b84:	c29c                	sw	a5,0(a3)
    3b86:	bff9                	j	3b64 <__swhatbuf_r+0x22>
    3b88:	04000793          	li	a5,64
    3b8c:	c01c                	sw	a5,0(s0)
    3b8e:	50f6                	lw	ra,124(sp)
    3b90:	5466                	lw	s0,120(sp)
    3b92:	54d6                	lw	s1,116(sp)
    3b94:	4501                	li	a0,0
    3b96:	6109                	addi	sp,sp,128
    3b98:	8082                	ret

00003b9a <__smakebuf_r>:
__smakebuf_r():
    3b9a:	00c5d783          	lhu	a5,12(a1)
    3b9e:	1101                	addi	sp,sp,-32
    3ba0:	cc22                	sw	s0,24(sp)
    3ba2:	ce06                	sw	ra,28(sp)
    3ba4:	ca26                	sw	s1,20(sp)
    3ba6:	c84a                	sw	s2,16(sp)
    3ba8:	8b89                	andi	a5,a5,2
    3baa:	842e                	mv	s0,a1
    3bac:	cf89                	beqz	a5,3bc6 <__smakebuf_r+0x2c>
    3bae:	04740793          	addi	a5,s0,71
    3bb2:	c01c                	sw	a5,0(s0)
    3bb4:	c81c                	sw	a5,16(s0)
    3bb6:	4785                	li	a5,1
    3bb8:	c85c                	sw	a5,20(s0)
    3bba:	40f2                	lw	ra,28(sp)
    3bbc:	4462                	lw	s0,24(sp)
    3bbe:	44d2                	lw	s1,20(sp)
    3bc0:	4942                	lw	s2,16(sp)
    3bc2:	6105                	addi	sp,sp,32
    3bc4:	8082                	ret
    3bc6:	0074                	addi	a3,sp,12
    3bc8:	0030                	addi	a2,sp,8
    3bca:	84aa                	mv	s1,a0
    3bcc:	3f9d                	jal	3b42 <__swhatbuf_r>
    3bce:	45a2                	lw	a1,8(sp)
    3bd0:	892a                	mv	s2,a0
    3bd2:	8526                	mv	a0,s1
    3bd4:	2205                	jal	3cf4 <_malloc_r>
    3bd6:	ed01                	bnez	a0,3bee <__smakebuf_r+0x54>
    3bd8:	00c41783          	lh	a5,12(s0)
    3bdc:	2007f713          	andi	a4,a5,512
    3be0:	ff69                	bnez	a4,3bba <__smakebuf_r+0x20>
    3be2:	9bf1                	andi	a5,a5,-4
    3be4:	0027e793          	ori	a5,a5,2
    3be8:	00f41623          	sh	a5,12(s0)
    3bec:	b7c9                	j	3bae <__smakebuf_r+0x14>
    3bee:	00000797          	auipc	a5,0x0
    3bf2:	d9678793          	addi	a5,a5,-618 # 3984 <_cleanup_r>
    3bf6:	d49c                	sw	a5,40(s1)
    3bf8:	00c45783          	lhu	a5,12(s0)
    3bfc:	c008                	sw	a0,0(s0)
    3bfe:	c808                	sw	a0,16(s0)
    3c00:	0807e793          	ori	a5,a5,128
    3c04:	00f41623          	sh	a5,12(s0)
    3c08:	47a2                	lw	a5,8(sp)
    3c0a:	c85c                	sw	a5,20(s0)
    3c0c:	47b2                	lw	a5,12(sp)
    3c0e:	cf89                	beqz	a5,3c28 <__smakebuf_r+0x8e>
    3c10:	00e41583          	lh	a1,14(s0)
    3c14:	8526                	mv	a0,s1
    3c16:	265d                	jal	3fbc <_isatty_r>
    3c18:	c901                	beqz	a0,3c28 <__smakebuf_r+0x8e>
    3c1a:	00c45783          	lhu	a5,12(s0)
    3c1e:	9bf1                	andi	a5,a5,-4
    3c20:	0017e793          	ori	a5,a5,1
    3c24:	00f41623          	sh	a5,12(s0)
    3c28:	00c45783          	lhu	a5,12(s0)
    3c2c:	00f96933          	or	s2,s2,a5
    3c30:	01241623          	sh	s2,12(s0)
    3c34:	b759                	j	3bba <__smakebuf_r+0x20>

00003c36 <memchr>:
memchr():
    3c36:	0ff5f593          	andi	a1,a1,255
    3c3a:	962a                	add	a2,a2,a0
    3c3c:	00c51463          	bne	a0,a2,3c44 <memchr+0xe>
    3c40:	4501                	li	a0,0
    3c42:	8082                	ret
    3c44:	00054783          	lbu	a5,0(a0)
    3c48:	feb78de3          	beq	a5,a1,3c42 <memchr+0xc>
    3c4c:	0505                	addi	a0,a0,1
    3c4e:	b7fd                	j	3c3c <memchr+0x6>

00003c50 <_free_r>:
_free_r():
    3c50:	c1cd                	beqz	a1,3cf2 <_free_r+0xa2>
    3c52:	ffc5a783          	lw	a5,-4(a1)
    3c56:	1141                	addi	sp,sp,-16
    3c58:	c422                	sw	s0,8(sp)
    3c5a:	c606                	sw	ra,12(sp)
    3c5c:	c226                	sw	s1,4(sp)
    3c5e:	ffc58413          	addi	s0,a1,-4
    3c62:	0007d363          	bgez	a5,3c68 <_free_r+0x18>
    3c66:	943e                	add	s0,s0,a5
    3c68:	84aa                	mv	s1,a0
    3c6a:	265d                	jal	4010 <__malloc_lock>
    3c6c:	83818793          	addi	a5,gp,-1992 # 200000a8 <__malloc_free_list>
    3c70:	439c                	lw	a5,0(a5)
    3c72:	eb99                	bnez	a5,3c88 <_free_r+0x38>
    3c74:	00042223          	sw	zero,4(s0)
    3c78:	8281ac23          	sw	s0,-1992(gp) # 200000a8 <__malloc_free_list>
    3c7c:	4422                	lw	s0,8(sp)
    3c7e:	40b2                	lw	ra,12(sp)
    3c80:	8526                	mv	a0,s1
    3c82:	4492                	lw	s1,4(sp)
    3c84:	0141                	addi	sp,sp,16
    3c86:	a671                	j	4012 <__malloc_unlock>
    3c88:	00f47e63          	bgeu	s0,a5,3ca4 <_free_r+0x54>
    3c8c:	4014                	lw	a3,0(s0)
    3c8e:	00d40733          	add	a4,s0,a3
    3c92:	00e79663          	bne	a5,a4,3c9e <_free_r+0x4e>
    3c96:	4398                	lw	a4,0(a5)
    3c98:	43dc                	lw	a5,4(a5)
    3c9a:	9736                	add	a4,a4,a3
    3c9c:	c018                	sw	a4,0(s0)
    3c9e:	c05c                	sw	a5,4(s0)
    3ca0:	bfe1                	j	3c78 <_free_r+0x28>
    3ca2:	87ba                	mv	a5,a4
    3ca4:	43d8                	lw	a4,4(a5)
    3ca6:	c319                	beqz	a4,3cac <_free_r+0x5c>
    3ca8:	fee47de3          	bgeu	s0,a4,3ca2 <_free_r+0x52>
    3cac:	4394                	lw	a3,0(a5)
    3cae:	00d78633          	add	a2,a5,a3
    3cb2:	00861f63          	bne	a2,s0,3cd0 <_free_r+0x80>
    3cb6:	4010                	lw	a2,0(s0)
    3cb8:	96b2                	add	a3,a3,a2
    3cba:	c394                	sw	a3,0(a5)
    3cbc:	00d78633          	add	a2,a5,a3
    3cc0:	fac71ee3          	bne	a4,a2,3c7c <_free_r+0x2c>
    3cc4:	4310                	lw	a2,0(a4)
    3cc6:	4358                	lw	a4,4(a4)
    3cc8:	96b2                	add	a3,a3,a2
    3cca:	c394                	sw	a3,0(a5)
    3ccc:	c3d8                	sw	a4,4(a5)
    3cce:	b77d                	j	3c7c <_free_r+0x2c>
    3cd0:	00c47563          	bgeu	s0,a2,3cda <_free_r+0x8a>
    3cd4:	47b1                	li	a5,12
    3cd6:	c09c                	sw	a5,0(s1)
    3cd8:	b755                	j	3c7c <_free_r+0x2c>
    3cda:	4010                	lw	a2,0(s0)
    3cdc:	00c406b3          	add	a3,s0,a2
    3ce0:	00d71663          	bne	a4,a3,3cec <_free_r+0x9c>
    3ce4:	4314                	lw	a3,0(a4)
    3ce6:	4358                	lw	a4,4(a4)
    3ce8:	96b2                	add	a3,a3,a2
    3cea:	c014                	sw	a3,0(s0)
    3cec:	c058                	sw	a4,4(s0)
    3cee:	c3c0                	sw	s0,4(a5)
    3cf0:	b771                	j	3c7c <_free_r+0x2c>
    3cf2:	8082                	ret

00003cf4 <_malloc_r>:
_malloc_r():
    3cf4:	1101                	addi	sp,sp,-32
    3cf6:	ca26                	sw	s1,20(sp)
    3cf8:	00358493          	addi	s1,a1,3
    3cfc:	98f1                	andi	s1,s1,-4
    3cfe:	ce06                	sw	ra,28(sp)
    3d00:	cc22                	sw	s0,24(sp)
    3d02:	c84a                	sw	s2,16(sp)
    3d04:	c64e                	sw	s3,12(sp)
    3d06:	04a1                	addi	s1,s1,8
    3d08:	47b1                	li	a5,12
    3d0a:	04f4f163          	bgeu	s1,a5,3d4c <_malloc_r+0x58>
    3d0e:	44b1                	li	s1,12
    3d10:	04b4e063          	bltu	s1,a1,3d50 <_malloc_r+0x5c>
    3d14:	892a                	mv	s2,a0
    3d16:	2ced                	jal	4010 <__malloc_lock>
    3d18:	83818793          	addi	a5,gp,-1992 # 200000a8 <__malloc_free_list>
    3d1c:	4398                	lw	a4,0(a5)
    3d1e:	843a                	mv	s0,a4
    3d20:	e031                	bnez	s0,3d64 <_malloc_r+0x70>
    3d22:	83c18793          	addi	a5,gp,-1988 # 200000ac <__malloc_sbrk_start>
    3d26:	439c                	lw	a5,0(a5)
    3d28:	e791                	bnez	a5,3d34 <_malloc_r+0x40>
    3d2a:	4581                	li	a1,0
    3d2c:	854a                	mv	a0,s2
    3d2e:	2851                	jal	3dc2 <_sbrk_r>
    3d30:	82a1ae23          	sw	a0,-1988(gp) # 200000ac <__malloc_sbrk_start>
    3d34:	85a6                	mv	a1,s1
    3d36:	854a                	mv	a0,s2
    3d38:	2069                	jal	3dc2 <_sbrk_r>
    3d3a:	59fd                	li	s3,-1
    3d3c:	07351763          	bne	a0,s3,3daa <_malloc_r+0xb6>
    3d40:	47b1                	li	a5,12
    3d42:	00f92023          	sw	a5,0(s2)
    3d46:	854a                	mv	a0,s2
    3d48:	24e9                	jal	4012 <__malloc_unlock>
    3d4a:	a029                	j	3d54 <_malloc_r+0x60>
    3d4c:	fc04d2e3          	bgez	s1,3d10 <_malloc_r+0x1c>
    3d50:	47b1                	li	a5,12
    3d52:	c11c                	sw	a5,0(a0)
    3d54:	4501                	li	a0,0
    3d56:	40f2                	lw	ra,28(sp)
    3d58:	4462                	lw	s0,24(sp)
    3d5a:	44d2                	lw	s1,20(sp)
    3d5c:	4942                	lw	s2,16(sp)
    3d5e:	49b2                	lw	s3,12(sp)
    3d60:	6105                	addi	sp,sp,32
    3d62:	8082                	ret
    3d64:	401c                	lw	a5,0(s0)
    3d66:	8f85                	sub	a5,a5,s1
    3d68:	0207ce63          	bltz	a5,3da4 <_malloc_r+0xb0>
    3d6c:	46ad                	li	a3,11
    3d6e:	00f6f663          	bgeu	a3,a5,3d7a <_malloc_r+0x86>
    3d72:	c01c                	sw	a5,0(s0)
    3d74:	943e                	add	s0,s0,a5
    3d76:	c004                	sw	s1,0(s0)
    3d78:	a031                	j	3d84 <_malloc_r+0x90>
    3d7a:	405c                	lw	a5,4(s0)
    3d7c:	02871263          	bne	a4,s0,3da0 <_malloc_r+0xac>
    3d80:	82f1ac23          	sw	a5,-1992(gp) # 200000a8 <__malloc_free_list>
    3d84:	854a                	mv	a0,s2
    3d86:	2471                	jal	4012 <__malloc_unlock>
    3d88:	00b40513          	addi	a0,s0,11
    3d8c:	00440793          	addi	a5,s0,4
    3d90:	9961                	andi	a0,a0,-8
    3d92:	40f50733          	sub	a4,a0,a5
    3d96:	d361                	beqz	a4,3d56 <_malloc_r+0x62>
    3d98:	943a                	add	s0,s0,a4
    3d9a:	8f89                	sub	a5,a5,a0
    3d9c:	c01c                	sw	a5,0(s0)
    3d9e:	bf65                	j	3d56 <_malloc_r+0x62>
    3da0:	c35c                	sw	a5,4(a4)
    3da2:	b7cd                	j	3d84 <_malloc_r+0x90>
    3da4:	8722                	mv	a4,s0
    3da6:	4040                	lw	s0,4(s0)
    3da8:	bfa5                	j	3d20 <_malloc_r+0x2c>
    3daa:	00350413          	addi	s0,a0,3
    3dae:	9871                	andi	s0,s0,-4
    3db0:	fc8503e3          	beq	a0,s0,3d76 <_malloc_r+0x82>
    3db4:	40a405b3          	sub	a1,s0,a0
    3db8:	854a                	mv	a0,s2
    3dba:	2021                	jal	3dc2 <_sbrk_r>
    3dbc:	fb351de3          	bne	a0,s3,3d76 <_malloc_r+0x82>
    3dc0:	b741                	j	3d40 <_malloc_r+0x4c>

00003dc2 <_sbrk_r>:
_sbrk_r():
    3dc2:	1141                	addi	sp,sp,-16
    3dc4:	c422                	sw	s0,8(sp)
    3dc6:	842a                	mv	s0,a0
    3dc8:	852e                	mv	a0,a1
    3dca:	8401ae23          	sw	zero,-1956(gp) # 200000cc <errno>
    3dce:	c606                	sw	ra,12(sp)
    3dd0:	24d1                	jal	4094 <_sbrk>
    3dd2:	57fd                	li	a5,-1
    3dd4:	00f51763          	bne	a0,a5,3de2 <_sbrk_r+0x20>
    3dd8:	85c18793          	addi	a5,gp,-1956 # 200000cc <errno>
    3ddc:	439c                	lw	a5,0(a5)
    3dde:	c391                	beqz	a5,3de2 <_sbrk_r+0x20>
    3de0:	c01c                	sw	a5,0(s0)
    3de2:	40b2                	lw	ra,12(sp)
    3de4:	4422                	lw	s0,8(sp)
    3de6:	0141                	addi	sp,sp,16
    3de8:	8082                	ret

00003dea <_raise_r>:
_raise_r():
    3dea:	47fd                	li	a5,31
    3dec:	00b7f663          	bgeu	a5,a1,3df8 <_raise_r+0xe>
    3df0:	47d9                	li	a5,22
    3df2:	c11c                	sw	a5,0(a0)
    3df4:	557d                	li	a0,-1
    3df6:	8082                	ret
    3df8:	417c                	lw	a5,68(a0)
    3dfa:	1101                	addi	sp,sp,-32
    3dfc:	cc22                	sw	s0,24(sp)
    3dfe:	ce06                	sw	ra,28(sp)
    3e00:	862e                	mv	a2,a1
    3e02:	842a                	mv	s0,a0
    3e04:	c791                	beqz	a5,3e10 <_raise_r+0x26>
    3e06:	00259713          	slli	a4,a1,0x2
    3e0a:	97ba                	add	a5,a5,a4
    3e0c:	4398                	lw	a4,0(a5)
    3e0e:	eb19                	bnez	a4,3e24 <_raise_r+0x3a>
    3e10:	8522                	mv	a0,s0
    3e12:	c632                	sw	a2,12(sp)
    3e14:	20b5                	jal	3e80 <_getpid_r>
    3e16:	85aa                	mv	a1,a0
    3e18:	8522                	mv	a0,s0
    3e1a:	4462                	lw	s0,24(sp)
    3e1c:	4632                	lw	a2,12(sp)
    3e1e:	40f2                	lw	ra,28(sp)
    3e20:	6105                	addi	sp,sp,32
    3e22:	a815                	j	3e56 <_kill_r>
    3e24:	4685                	li	a3,1
    3e26:	4501                	li	a0,0
    3e28:	00d70863          	beq	a4,a3,3e38 <_raise_r+0x4e>
    3e2c:	56fd                	li	a3,-1
    3e2e:	00d71963          	bne	a4,a3,3e40 <_raise_r+0x56>
    3e32:	47d9                	li	a5,22
    3e34:	c01c                	sw	a5,0(s0)
    3e36:	4505                	li	a0,1
    3e38:	40f2                	lw	ra,28(sp)
    3e3a:	4462                	lw	s0,24(sp)
    3e3c:	6105                	addi	sp,sp,32
    3e3e:	8082                	ret
    3e40:	852e                	mv	a0,a1
    3e42:	0007a023          	sw	zero,0(a5)
    3e46:	9702                	jalr	a4
    3e48:	4501                	li	a0,0
    3e4a:	b7fd                	j	3e38 <_raise_r+0x4e>

00003e4c <raise>:
raise():
    3e4c:	80818793          	addi	a5,gp,-2040 # 20000078 <_impure_ptr>
    3e50:	85aa                	mv	a1,a0
    3e52:	4388                	lw	a0,0(a5)
    3e54:	bf59                	j	3dea <_raise_r>

00003e56 <_kill_r>:
_kill_r():
    3e56:	1141                	addi	sp,sp,-16
    3e58:	c422                	sw	s0,8(sp)
    3e5a:	842a                	mv	s0,a0
    3e5c:	852e                	mv	a0,a1
    3e5e:	85b2                	mv	a1,a2
    3e60:	8401ae23          	sw	zero,-1956(gp) # 200000cc <errno>
    3e64:	c606                	sw	ra,12(sp)
    3e66:	2429                	jal	4070 <_kill>
    3e68:	57fd                	li	a5,-1
    3e6a:	00f51763          	bne	a0,a5,3e78 <_kill_r+0x22>
    3e6e:	85c18793          	addi	a5,gp,-1956 # 200000cc <errno>
    3e72:	439c                	lw	a5,0(a5)
    3e74:	c391                	beqz	a5,3e78 <_kill_r+0x22>
    3e76:	c01c                	sw	a5,0(s0)
    3e78:	40b2                	lw	ra,12(sp)
    3e7a:	4422                	lw	s0,8(sp)
    3e7c:	0141                	addi	sp,sp,16
    3e7e:	8082                	ret

00003e80 <_getpid_r>:
_getpid_r():
    3e80:	aae1                	j	4058 <_getpid>

00003e82 <__sread>:
__sread():
    3e82:	1141                	addi	sp,sp,-16
    3e84:	c422                	sw	s0,8(sp)
    3e86:	842e                	mv	s0,a1
    3e88:	00e59583          	lh	a1,14(a1)
    3e8c:	c606                	sw	ra,12(sp)
    3e8e:	2259                	jal	4014 <_read_r>
    3e90:	00054963          	bltz	a0,3ea2 <__sread+0x20>
    3e94:	487c                	lw	a5,84(s0)
    3e96:	97aa                	add	a5,a5,a0
    3e98:	c87c                	sw	a5,84(s0)
    3e9a:	40b2                	lw	ra,12(sp)
    3e9c:	4422                	lw	s0,8(sp)
    3e9e:	0141                	addi	sp,sp,16
    3ea0:	8082                	ret
    3ea2:	00c45783          	lhu	a5,12(s0)
    3ea6:	777d                	lui	a4,0xfffff
    3ea8:	177d                	addi	a4,a4,-1
    3eaa:	8ff9                	and	a5,a5,a4
    3eac:	00f41623          	sh	a5,12(s0)
    3eb0:	b7ed                	j	3e9a <__sread+0x18>

00003eb2 <__swrite>:
__swrite():
    3eb2:	00c5d783          	lhu	a5,12(a1)
    3eb6:	1101                	addi	sp,sp,-32
    3eb8:	cc22                	sw	s0,24(sp)
    3eba:	ca26                	sw	s1,20(sp)
    3ebc:	c84a                	sw	s2,16(sp)
    3ebe:	c64e                	sw	s3,12(sp)
    3ec0:	ce06                	sw	ra,28(sp)
    3ec2:	1007f793          	andi	a5,a5,256
    3ec6:	84aa                	mv	s1,a0
    3ec8:	842e                	mv	s0,a1
    3eca:	8932                	mv	s2,a2
    3ecc:	89b6                	mv	s3,a3
    3ece:	c791                	beqz	a5,3eda <__swrite+0x28>
    3ed0:	00e59583          	lh	a1,14(a1)
    3ed4:	4689                	li	a3,2
    3ed6:	4601                	li	a2,0
    3ed8:	2231                	jal	3fe4 <_lseek_r>
    3eda:	00c45783          	lhu	a5,12(s0)
    3ede:	777d                	lui	a4,0xfffff
    3ee0:	177d                	addi	a4,a4,-1
    3ee2:	8ff9                	and	a5,a5,a4
    3ee4:	00f41623          	sh	a5,12(s0)
    3ee8:	00e41583          	lh	a1,14(s0)
    3eec:	4462                	lw	s0,24(sp)
    3eee:	40f2                	lw	ra,28(sp)
    3ef0:	86ce                	mv	a3,s3
    3ef2:	864a                	mv	a2,s2
    3ef4:	49b2                	lw	s3,12(sp)
    3ef6:	4942                	lw	s2,16(sp)
    3ef8:	8526                	mv	a0,s1
    3efa:	44d2                	lw	s1,20(sp)
    3efc:	6105                	addi	sp,sp,32
    3efe:	a83d                	j	3f3c <_write_r>

00003f00 <__sseek>:
__sseek():
    3f00:	1141                	addi	sp,sp,-16
    3f02:	c422                	sw	s0,8(sp)
    3f04:	842e                	mv	s0,a1
    3f06:	00e59583          	lh	a1,14(a1)
    3f0a:	c606                	sw	ra,12(sp)
    3f0c:	28e1                	jal	3fe4 <_lseek_r>
    3f0e:	57fd                	li	a5,-1
    3f10:	00c45703          	lhu	a4,12(s0)
    3f14:	00f51b63          	bne	a0,a5,3f2a <__sseek+0x2a>
    3f18:	77fd                	lui	a5,0xfffff
    3f1a:	17fd                	addi	a5,a5,-1
    3f1c:	8ff9                	and	a5,a5,a4
    3f1e:	00f41623          	sh	a5,12(s0)
    3f22:	40b2                	lw	ra,12(sp)
    3f24:	4422                	lw	s0,8(sp)
    3f26:	0141                	addi	sp,sp,16
    3f28:	8082                	ret
    3f2a:	6785                	lui	a5,0x1
    3f2c:	8fd9                	or	a5,a5,a4
    3f2e:	00f41623          	sh	a5,12(s0)
    3f32:	c868                	sw	a0,84(s0)
    3f34:	b7fd                	j	3f22 <__sseek+0x22>

00003f36 <__sclose>:
__sclose():
    3f36:	00e59583          	lh	a1,14(a1)
    3f3a:	a805                	j	3f6a <_close_r>

00003f3c <_write_r>:
_write_r():
    3f3c:	1141                	addi	sp,sp,-16
    3f3e:	c422                	sw	s0,8(sp)
    3f40:	842a                	mv	s0,a0
    3f42:	852e                	mv	a0,a1
    3f44:	85b2                	mv	a1,a2
    3f46:	8636                	mv	a2,a3
    3f48:	8401ae23          	sw	zero,-1956(gp) # 200000cc <errno>
    3f4c:	c606                	sw	ra,12(sp)
    3f4e:	d07fe0ef          	jal	ra,2c54 <_write>
    3f52:	57fd                	li	a5,-1
    3f54:	00f51763          	bne	a0,a5,3f62 <_write_r+0x26>
    3f58:	85c18793          	addi	a5,gp,-1956 # 200000cc <errno>
    3f5c:	439c                	lw	a5,0(a5)
    3f5e:	c391                	beqz	a5,3f62 <_write_r+0x26>
    3f60:	c01c                	sw	a5,0(s0)
    3f62:	40b2                	lw	ra,12(sp)
    3f64:	4422                	lw	s0,8(sp)
    3f66:	0141                	addi	sp,sp,16
    3f68:	8082                	ret

00003f6a <_close_r>:
_close_r():
    3f6a:	1141                	addi	sp,sp,-16
    3f6c:	c422                	sw	s0,8(sp)
    3f6e:	842a                	mv	s0,a0
    3f70:	852e                	mv	a0,a1
    3f72:	8401ae23          	sw	zero,-1956(gp) # 200000cc <errno>
    3f76:	c606                	sw	ra,12(sp)
    3f78:	20e1                	jal	4040 <_close>
    3f7a:	57fd                	li	a5,-1
    3f7c:	00f51763          	bne	a0,a5,3f8a <_close_r+0x20>
    3f80:	85c18793          	addi	a5,gp,-1956 # 200000cc <errno>
    3f84:	439c                	lw	a5,0(a5)
    3f86:	c391                	beqz	a5,3f8a <_close_r+0x20>
    3f88:	c01c                	sw	a5,0(s0)
    3f8a:	40b2                	lw	ra,12(sp)
    3f8c:	4422                	lw	s0,8(sp)
    3f8e:	0141                	addi	sp,sp,16
    3f90:	8082                	ret

00003f92 <_fstat_r>:
_fstat_r():
    3f92:	1141                	addi	sp,sp,-16
    3f94:	c422                	sw	s0,8(sp)
    3f96:	842a                	mv	s0,a0
    3f98:	852e                	mv	a0,a1
    3f9a:	85b2                	mv	a1,a2
    3f9c:	8401ae23          	sw	zero,-1956(gp) # 200000cc <errno>
    3fa0:	c606                	sw	ra,12(sp)
    3fa2:	206d                	jal	404c <_fstat>
    3fa4:	57fd                	li	a5,-1
    3fa6:	00f51763          	bne	a0,a5,3fb4 <_fstat_r+0x22>
    3faa:	85c18793          	addi	a5,gp,-1956 # 200000cc <errno>
    3fae:	439c                	lw	a5,0(a5)
    3fb0:	c391                	beqz	a5,3fb4 <_fstat_r+0x22>
    3fb2:	c01c                	sw	a5,0(s0)
    3fb4:	40b2                	lw	ra,12(sp)
    3fb6:	4422                	lw	s0,8(sp)
    3fb8:	0141                	addi	sp,sp,16
    3fba:	8082                	ret

00003fbc <_isatty_r>:
_isatty_r():
    3fbc:	1141                	addi	sp,sp,-16
    3fbe:	c422                	sw	s0,8(sp)
    3fc0:	842a                	mv	s0,a0
    3fc2:	852e                	mv	a0,a1
    3fc4:	8401ae23          	sw	zero,-1956(gp) # 200000cc <errno>
    3fc8:	c606                	sw	ra,12(sp)
    3fca:	2869                	jal	4064 <_isatty>
    3fcc:	57fd                	li	a5,-1
    3fce:	00f51763          	bne	a0,a5,3fdc <_isatty_r+0x20>
    3fd2:	85c18793          	addi	a5,gp,-1956 # 200000cc <errno>
    3fd6:	439c                	lw	a5,0(a5)
    3fd8:	c391                	beqz	a5,3fdc <_isatty_r+0x20>
    3fda:	c01c                	sw	a5,0(s0)
    3fdc:	40b2                	lw	ra,12(sp)
    3fde:	4422                	lw	s0,8(sp)
    3fe0:	0141                	addi	sp,sp,16
    3fe2:	8082                	ret

00003fe4 <_lseek_r>:
_lseek_r():
    3fe4:	1141                	addi	sp,sp,-16
    3fe6:	c422                	sw	s0,8(sp)
    3fe8:	842a                	mv	s0,a0
    3fea:	852e                	mv	a0,a1
    3fec:	85b2                	mv	a1,a2
    3fee:	8636                	mv	a2,a3
    3ff0:	8401ae23          	sw	zero,-1956(gp) # 200000cc <errno>
    3ff4:	c606                	sw	ra,12(sp)
    3ff6:	2059                	jal	407c <_lseek>
    3ff8:	57fd                	li	a5,-1
    3ffa:	00f51763          	bne	a0,a5,4008 <_lseek_r+0x24>
    3ffe:	85c18793          	addi	a5,gp,-1956 # 200000cc <errno>
    4002:	439c                	lw	a5,0(a5)
    4004:	c391                	beqz	a5,4008 <_lseek_r+0x24>
    4006:	c01c                	sw	a5,0(s0)
    4008:	40b2                	lw	ra,12(sp)
    400a:	4422                	lw	s0,8(sp)
    400c:	0141                	addi	sp,sp,16
    400e:	8082                	ret

00004010 <__malloc_lock>:
__malloc_lock():
    4010:	8082                	ret

00004012 <__malloc_unlock>:
__malloc_unlock():
    4012:	8082                	ret

00004014 <_read_r>:
_read_r():
    4014:	1141                	addi	sp,sp,-16
    4016:	c422                	sw	s0,8(sp)
    4018:	842a                	mv	s0,a0
    401a:	852e                	mv	a0,a1
    401c:	85b2                	mv	a1,a2
    401e:	8636                	mv	a2,a3
    4020:	8401ae23          	sw	zero,-1956(gp) # 200000cc <errno>
    4024:	c606                	sw	ra,12(sp)
    4026:	208d                	jal	4088 <_read>
    4028:	57fd                	li	a5,-1
    402a:	00f51763          	bne	a0,a5,4038 <_read_r+0x24>
    402e:	85c18793          	addi	a5,gp,-1956 # 200000cc <errno>
    4032:	439c                	lw	a5,0(a5)
    4034:	c391                	beqz	a5,4038 <_read_r+0x24>
    4036:	c01c                	sw	a5,0(s0)
    4038:	40b2                	lw	ra,12(sp)
    403a:	4422                	lw	s0,8(sp)
    403c:	0141                	addi	sp,sp,16
    403e:	8082                	ret

00004040 <_close>:
_close():
    4040:	05800793          	li	a5,88
    4044:	84f1ae23          	sw	a5,-1956(gp) # 200000cc <errno>
    4048:	557d                	li	a0,-1
    404a:	8082                	ret

0000404c <_fstat>:
_fstat():
    404c:	05800793          	li	a5,88
    4050:	84f1ae23          	sw	a5,-1956(gp) # 200000cc <errno>
    4054:	557d                	li	a0,-1
    4056:	8082                	ret

00004058 <_getpid>:
_getpid():
    4058:	05800793          	li	a5,88
    405c:	84f1ae23          	sw	a5,-1956(gp) # 200000cc <errno>
    4060:	557d                	li	a0,-1
    4062:	8082                	ret

00004064 <_isatty>:
_isatty():
    4064:	05800793          	li	a5,88
    4068:	84f1ae23          	sw	a5,-1956(gp) # 200000cc <errno>
    406c:	4501                	li	a0,0
    406e:	8082                	ret

00004070 <_kill>:
_kill():
    4070:	05800793          	li	a5,88
    4074:	84f1ae23          	sw	a5,-1956(gp) # 200000cc <errno>
    4078:	557d                	li	a0,-1
    407a:	8082                	ret

0000407c <_lseek>:
_lseek():
    407c:	05800793          	li	a5,88
    4080:	84f1ae23          	sw	a5,-1956(gp) # 200000cc <errno>
    4084:	557d                	li	a0,-1
    4086:	8082                	ret

00004088 <_read>:
_read():
    4088:	05800793          	li	a5,88
    408c:	84f1ae23          	sw	a5,-1956(gp) # 200000cc <errno>
    4090:	557d                	li	a0,-1
    4092:	8082                	ret

00004094 <_sbrk>:
_sbrk():
    4094:	84018793          	addi	a5,gp,-1984 # 200000b0 <heap_end.1518>
    4098:	439c                	lw	a5,0(a5)
    409a:	c791                	beqz	a5,40a6 <_sbrk+0x12>
    409c:	953e                	add	a0,a0,a5
    409e:	84a1a023          	sw	a0,-1984(gp) # 200000b0 <heap_end.1518>
    40a2:	853e                	mv	a0,a5
    40a4:	8082                	ret
    40a6:	86018793          	addi	a5,gp,-1952 # 200000d0 <_ebss>
    40aa:	953e                	add	a0,a0,a5
    40ac:	84a1a023          	sw	a0,-1984(gp) # 200000b0 <heap_end.1518>
    40b0:	853e                	mv	a0,a5
    40b2:	8082                	ret

000040b4 <_exit>:
_exit():
    40b4:	a001                	j	40b4 <_exit>
    40b6:	0000                	unimp
    40b8:	0030                	addi	a2,sp,8
    40ba:	0000                	unimp
    40bc:	2e2e                	fld	ft8,200(sp)
    40be:	62694c2f          	0x62694c2f
    40c2:	6172                	flw	ft2,28(sp)
    40c4:	6972                	flw	fs2,28(sp)
    40c6:	7365                	lui	t1,0xffff9
    40c8:	6565732f          	0x6565732f
    40cc:	6572666b          	0x6572666b
    40d0:	5f65                	li	t5,-7
    40d2:	696c                	flw	fa1,84(a0)
    40d4:	7262                	flw	ft4,56(sp)
    40d6:	7261                	lui	tp,0xffff8
    40d8:	6569                	lui	a0,0x1a
    40da:	667a2f73          	csrrs	t5,0x667,s4
    40de:	735f 6970 632e      	0x632e6970735f
    40e4:	0000                	unimp
	...

000040e8 <tft_ascii>:
	...
    40f8:	0000 0800 0808 0808 0808 0000 0808 0000     ................
    4108:	4800 2424 0012 0000 0000 0000 0000 0000     .H$$............
    4118:	0000 4800 4848 247e 2424 247e 2424 0000     ...HHH~$$$~$$$..
    4128:	0000 3c10 5252 1c12 5030 5250 3c52 1010     ...<RR..0PPRR<..
    4138:	0000 2200 1525 0d15 582a 5454 2252 0000     ..."%...*XTTR"..
    4148:	0000 0c00 1212 0a12 2576 1929 6e91 0000     ........v%)..n..
    4158:	0600 0404 0002 0000 0000 0000 0000 0000     ................
    4168:	4000 1020 0810 0808 0808 1008 2010 0040     .@ .......... @.
    4178:	0200 0804 1008 1010 1010 0810 0408 0002     ................
    4188:	0000 0000 0808 1c6b 6b1c 0808 0000 0000     ......k..k......
    4198:	0000 0000 1000 1010 10fe 1010 0000 0000     ................
	...
    41b4:	0406 0204 0000 0000 0000 0000 007e 0000     ............~...
	...
    41d4:	0606 0000 0000 2040 2020 1010 0808 0408     ......@   ......
    41e4:	0204 0002 0000 1800 4224 4242 4242 4242     ........$BBBBBBB
    41f4:	1824 0000 0000 1000 101c 1010 1010 1010     $...............
    4204:	7c10 0000 0000 3c00 4242 4042 1020 0408     .|.....<BBB@ ...
    4214:	7e42 0000 0000 3c00 4242 2040 2018 4240     B~.....<BB@ . @B
    4224:	3c42 0000 0000 2000 3030 2428 2224 20fe     B<..... 00($$". 
    4234:	f820 0000 0000 7e00 0202 1e02 4022 4240      ......~...."@@B
    4244:	1c22 0000 0000 1800 0224 3a02 4246 4242     ".......$..:FBBB
    4254:	3844 0000 0000 7e00 2042 1020 0810 0808     D8.....~B  .....
    4264:	0808 0000 0000 3c00 4242 2442 2418 4242     .......<BBB$.$BB
    4274:	3c42 0000 0000 1c00 4222 4242 5c62 4040     B<......"BBBb\@@
    4284:	1824 0000 0000 0000 0000 1818 0000 0000     $...............
    4294:	1818 0000 0000 0000 0000 0800 0000 0000     ................
    42a4:	0800 0808 0000 4000 1020 0408 0402 1008     .......@ .......
    42b4:	4020 0000 0000 0000 0000 007e 7e00 0000      @........~..~..
    42c4:	0000 0000 0000 0200 0804 2010 2040 0810     ........... @ ..
    42d4:	0204 0000 0000 3c00 4242 2046 1010 0010     .......<BBF ....
    42e4:	1818 0000 0000 1c00 5a22 5555 5555 3a55     ........"ZUUUUU:
    42f4:	3c42 0000 0000 0800 1808 1414 3c24 4222     B<..........$<"B
    4304:	e742 0000 0000 1f00 2222 1e22 4222 4242     B......."""."BBB
    4314:	1f22 0000 0000 7c00 4242 0101 0101 4201     "......|BB.....B
    4324:	1c22 0000 0000 1f00 4222 4242 4242 4242     "......."BBBBBBB
    4334:	1f22 0000 0000 3f00 1242 1e12 1212 4202     "......?B......B
    4344:	3f42 0000 0000 3f00 1242 1e12 1212 0202     B?.....?B.......
    4354:	0702 0000 0000 3c00 2222 0101 7101 2221     .......<""...q!"
    4364:	1c22 0000 0000 e700 4242 4242 427e 4242     ".......BBBB~BBB
    4374:	e742 0000 0000 3e00 0808 0808 0808 0808     B......>........
    4384:	3e08 0000 0000 7c00 1010 1010 1010 1010     .>.....|........
    4394:	1010 0f11 0000 7700 1222 0e0a 120a 2212     .......w"......"
    43a4:	7722 0000 0000 0700 0202 0202 0202 0202     "w..............
    43b4:	7f42 0000 0000 7700 3636 3636 2a36 2a2a     B......w66666***
    43c4:	6b2a 0000 0000 e300 4646 4a4a 5252 6252     *k......FFJJRRRb
    43d4:	4762 0000 0000 1c00 4122 4141 4141 4141     bG......"AAAAAAA
    43e4:	1c22 0000 0000 3f00 4242 4242 023e 0202     "......?BBBB>...
    43f4:	0702 0000 0000 1c00 4122 4141 4141 4d41     ........"AAAAAAM
    4404:	1c32 0060 0000 3f00 4242 3e42 1212 2222     2.`....?BBB>..""
    4414:	c742 0000 0000 7c00 4242 0402 2018 4240     B......|BB... @B
    4424:	3e42 0000 0000 7f00 0849 0808 0808 0808     B>......I.......
    4434:	1c08 0000 0000 e700 4242 4242 4242 4242     ........BBBBBBBB
    4444:	3c42 0000 0000 e700 4242 2422 1424 1814     B<......BB"$$...
    4454:	0808 0000 0000 6b00 2a2a 2a2a 362a 1414     .......k*****6..
    4464:	1414 0000 0000 e700 2442 1824 1818 2424     ........B$$...$$
    4474:	e742 0000 0000 7700 2222 1414 0808 0808     B......w""......
    4484:	1c08 0000 0000 7e00 2021 1010 0408 4204     .......~! .....B
    4494:	3f42 0000 7800 0808 0808 0808 0808 0808     B?...x..........
    44a4:	0808 0078 0000 0402 0404 0808 1008 2010     ..x............ 
    44b4:	2020 4040 1e00 1010 1010 1010 1010 1010       @@............
    44c4:	1010 001e 1800 0024 0000 0000 0000 0000     ......$.........
	...
    44e4:	0000 ff00 0600 0008 0000 0000 0000 0000     ................
	...
    44fc:	0000 1c00 3022 222c 6c32 0000 0000 0000     ...."0,"2l......
    450c:	0203 1a02 4226 4242 1a26 0000 0000 0000     ....&BBB&.......
    451c:	0000 3800 0244 0202 3844 0000 0000 0000     ...8D...D8......
    452c:	4060 7c40 4242 4242 dc62 0000 0000 0000     `@@|BBBBb.......
    453c:	0000 3c00 4242 027e 3c42 0000 0000 0000     ...<BB~.B<......
    454c:	4830 3e08 0808 0808 3e08 0000 0000 0000     0H.>.....>......
    455c:	0000 7c00 2222 021c 423c 3c42 0000 0000     ...|""..<BB<....
    456c:	0203 3a02 4246 4242 e742 0000 0000 0c00     ...:FBBBB.......
    457c:	000c 0e00 0808 0808 3e08 0000 0000 3000     .........>.....0
    458c:	0030 3800 2020 2020 2020 1e22 0000 0000     0..8      ".....
    459c:	0203 7202 0a12 120e 7722 0000 0000 0800     ...r...."w......
    45ac:	080e 0808 0808 0808 3e08 0000 0000 0000     .........>......
    45bc:	0000 7f00 9292 9292 b792 0000 0000 0000     ................
    45cc:	0000 3b00 4246 4242 e742 0000 0000 0000     ...;FBBBB.......
    45dc:	0000 3c00 4242 4242 3c42 0000 0000 0000     ...<BBBBB<......
    45ec:	0000 1b00 4226 4242 1a26 0702 0000 0000     ....&BBB&.......
    45fc:	0000 5800 4264 4242 5864 e040 0000 0000     ...XdBBBdX@.....
    460c:	0000 7700 044c 0404 1f04 0000 0000 0000     ...wL...........
    461c:	0000 7c00 0242 403c 3e42 0000 0000 0000     ...|B.<@B>......
    462c:	0800 3e08 0808 0808 3048 0000 0000 0000     ...>....H0......
    463c:	0000 6300 4242 4242 dc62 0000 0000 0000     ...cBBBBb.......
    464c:	0000 7700 2222 1414 0808 0000 0000 0000     ...w""..........
    465c:	0000 db00 5291 2a5a 2424 0000 0000 0000     .....RZ*$$......
    466c:	0000 6e00 1824 1818 7624 0000 0000 0000     ...n$...$v......
    467c:	0000 e700 2442 1824 0818 0608 0000 0000     ....B$$.........
    468c:	0000 7e00 1022 0808 7e44 0000 c000 2020     ...~"...D~....  
    469c:	2020 2020 2010 2020 2020 00c0 1010 1010         .     ......
    46ac:	1010 1010 1010 1010 1010 1010 0300 0404     ................
    46bc:	0404 0404 0408 0404 0404 0003 5a04 0020     .............Z .
	...

000046d8 <GPION>:
    46d8:	0800 4001 0c00 4001 1000 4001 1400 4001     ...@...@...@...@

000046e8 <__func__.3348>:
    46e8:	7073 5f69 7067 6f69 695f 696e 0074 0000     spi_gpio_init...

000046f8 <UARTN>:
    46f8:	3800 4001 4400 4000 4800 4000 4c00 4000     .8.@.D.@.H.@.L.@
    4708:	202c 7566 636e 6974 6e6f 203a 0000 0000     , function: ....
    4718:	7361 6573 7472 6f69 206e 2522 2273 6620     assertion "%s" f
    4728:	6961 656c 3a64 6620 6c69 2065 2522 2273     ailed: file "%s"
    4738:	202c 696c 656e 2520 2564 2573 0a73 0000     , line %d%s%s...
    4748:	2d23 2b30 0020 0000 6c68 004c 6665 4567     #-0+ ...hlL.efgE
    4758:	4746 0000 3130 3332 3534 3736 3938 4241     FG..0123456789AB
    4768:	4443 4645 0000 0000 3130 3332 3534 3736     CDEF....01234567
    4778:	3938 6261 6463 6665 0000 0000               89abcdef....

00004784 <__sf_fake_stderr>:
	...

000047a4 <__sf_fake_stdin>:
	...

000047c4 <__sf_fake_stdout>:
	...
